ARM GAS  C:\Users\ADMINI~1\AppData\Local\Temp\ccJw1j3v.s 			page 1


   1              		.cpu cortex-m3
   2              		.arch armv7-m
   3              		.fpu softvfp
   4              		.eabi_attribute 20, 1
   5              		.eabi_attribute 21, 1
   6              		.eabi_attribute 23, 3
   7              		.eabi_attribute 24, 1
   8              		.eabi_attribute 25, 1
   9              		.eabi_attribute 26, 1
  10              		.eabi_attribute 30, 1
  11              		.eabi_attribute 34, 1
  12              		.eabi_attribute 18, 4
  13              		.file	"i2c.c"
  14              		.text
  15              	.Ltext0:
  16              		.cfi_sections	.debug_frame
  17              		.section	.text.MX_I2C1_Init,"ax",%progbits
  18              		.align	1
  19              		.global	MX_I2C1_Init
  20              		.syntax unified
  21              		.thumb
  22              		.thumb_func
  24              	MX_I2C1_Init:
  25              	.LFB65:
  26              		.file 1 "Core/Src/i2c.c"
   1:Core/Src/i2c.c **** /* USER CODE BEGIN Header */
   2:Core/Src/i2c.c **** /**
   3:Core/Src/i2c.c ****   ******************************************************************************
   4:Core/Src/i2c.c ****   * @file    i2c.c
   5:Core/Src/i2c.c ****   * @brief   This file provides code for the configuration
   6:Core/Src/i2c.c ****   *          of the I2C instances.
   7:Core/Src/i2c.c ****   ******************************************************************************
   8:Core/Src/i2c.c ****   * @attention
   9:Core/Src/i2c.c ****   *
  10:Core/Src/i2c.c ****   * Copyright (c) 2023 STMicroelectronics.
  11:Core/Src/i2c.c ****   * All rights reserved.
  12:Core/Src/i2c.c ****   *
  13:Core/Src/i2c.c ****   * This software is licensed under terms that can be found in the LICENSE file
  14:Core/Src/i2c.c ****   * in the root directory of this software component.
  15:Core/Src/i2c.c ****   * If no LICENSE file comes with this software, it is provided AS-IS.
  16:Core/Src/i2c.c ****   *
  17:Core/Src/i2c.c ****   ******************************************************************************
  18:Core/Src/i2c.c ****   */
  19:Core/Src/i2c.c **** /* USER CODE END Header */
  20:Core/Src/i2c.c **** /* Includes ------------------------------------------------------------------*/
  21:Core/Src/i2c.c **** #include "i2c.h"
  22:Core/Src/i2c.c **** 
  23:Core/Src/i2c.c **** /* USER CODE BEGIN 0 */
  24:Core/Src/i2c.c **** 
  25:Core/Src/i2c.c **** /* USER CODE END 0 */
  26:Core/Src/i2c.c **** 
  27:Core/Src/i2c.c **** I2C_HandleTypeDef hi2c1;
  28:Core/Src/i2c.c **** I2C_HandleTypeDef hi2c2;
  29:Core/Src/i2c.c **** 
  30:Core/Src/i2c.c **** /* I2C1 init function */
  31:Core/Src/i2c.c **** void MX_I2C1_Init(void)
  32:Core/Src/i2c.c **** {
ARM GAS  C:\Users\ADMINI~1\AppData\Local\Temp\ccJw1j3v.s 			page 2


  27              		.loc 1 32 1 view -0
  28              		.cfi_startproc
  29              		@ args = 0, pretend = 0, frame = 0
  30              		@ frame_needed = 0, uses_anonymous_args = 0
  31 0000 08B5     		push	{r3, lr}
  32              	.LCFI0:
  33              		.cfi_def_cfa_offset 8
  34              		.cfi_offset 3, -8
  35              		.cfi_offset 14, -4
  33:Core/Src/i2c.c **** 
  34:Core/Src/i2c.c ****   /* USER CODE BEGIN I2C1_Init 0 */
  35:Core/Src/i2c.c **** 
  36:Core/Src/i2c.c ****   /* USER CODE END I2C1_Init 0 */
  37:Core/Src/i2c.c **** 
  38:Core/Src/i2c.c ****   /* USER CODE BEGIN I2C1_Init 1 */
  39:Core/Src/i2c.c **** 
  40:Core/Src/i2c.c ****   /* USER CODE END I2C1_Init 1 */
  41:Core/Src/i2c.c ****   hi2c1.Instance = I2C1;
  36              		.loc 1 41 3 view .LVU1
  37              		.loc 1 41 18 is_stmt 0 view .LVU2
  38 0002 0B48     		ldr	r0, .L5
  39 0004 0B4B     		ldr	r3, .L5+4
  40 0006 0360     		str	r3, [r0]
  42:Core/Src/i2c.c ****   hi2c1.Init.ClockSpeed = 400000;
  41              		.loc 1 42 3 is_stmt 1 view .LVU3
  42              		.loc 1 42 25 is_stmt 0 view .LVU4
  43 0008 0B4B     		ldr	r3, .L5+8
  44 000a 4360     		str	r3, [r0, #4]
  43:Core/Src/i2c.c ****   hi2c1.Init.DutyCycle = I2C_DUTYCYCLE_16_9;
  45              		.loc 1 43 3 is_stmt 1 view .LVU5
  46              		.loc 1 43 24 is_stmt 0 view .LVU6
  47 000c 4FF48042 		mov	r2, #16384
  48 0010 8260     		str	r2, [r0, #8]
  44:Core/Src/i2c.c ****   hi2c1.Init.OwnAddress1 = 0;
  49              		.loc 1 44 3 is_stmt 1 view .LVU7
  50              		.loc 1 44 26 is_stmt 0 view .LVU8
  51 0012 0023     		movs	r3, #0
  52 0014 C360     		str	r3, [r0, #12]
  45:Core/Src/i2c.c ****   hi2c1.Init.AddressingMode = I2C_ADDRESSINGMODE_7BIT;
  53              		.loc 1 45 3 is_stmt 1 view .LVU9
  54              		.loc 1 45 29 is_stmt 0 view .LVU10
  55 0016 0261     		str	r2, [r0, #16]
  46:Core/Src/i2c.c ****   hi2c1.Init.DualAddressMode = I2C_DUALADDRESS_DISABLE;
  56              		.loc 1 46 3 is_stmt 1 view .LVU11
  57              		.loc 1 46 30 is_stmt 0 view .LVU12
  58 0018 4361     		str	r3, [r0, #20]
  47:Core/Src/i2c.c ****   hi2c1.Init.OwnAddress2 = 0;
  59              		.loc 1 47 3 is_stmt 1 view .LVU13
  60              		.loc 1 47 26 is_stmt 0 view .LVU14
  61 001a 8361     		str	r3, [r0, #24]
  48:Core/Src/i2c.c ****   hi2c1.Init.GeneralCallMode = I2C_GENERALCALL_DISABLE;
  62              		.loc 1 48 3 is_stmt 1 view .LVU15
  63              		.loc 1 48 30 is_stmt 0 view .LVU16
  64 001c C361     		str	r3, [r0, #28]
  49:Core/Src/i2c.c ****   hi2c1.Init.NoStretchMode = I2C_NOSTRETCH_DISABLE;
  65              		.loc 1 49 3 is_stmt 1 view .LVU17
  66              		.loc 1 49 28 is_stmt 0 view .LVU18
ARM GAS  C:\Users\ADMINI~1\AppData\Local\Temp\ccJw1j3v.s 			page 3


  67 001e 0362     		str	r3, [r0, #32]
  50:Core/Src/i2c.c ****   if (HAL_I2C_Init(&hi2c1) != HAL_OK)
  68              		.loc 1 50 3 is_stmt 1 view .LVU19
  69              		.loc 1 50 7 is_stmt 0 view .LVU20
  70 0020 FFF7FEFF 		bl	HAL_I2C_Init
  71              	.LVL0:
  72              		.loc 1 50 6 view .LVU21
  73 0024 00B9     		cbnz	r0, .L4
  74              	.L1:
  51:Core/Src/i2c.c ****   {
  52:Core/Src/i2c.c ****     Error_Handler();
  53:Core/Src/i2c.c ****   }
  54:Core/Src/i2c.c ****   /* USER CODE BEGIN I2C1_Init 2 */
  55:Core/Src/i2c.c **** 
  56:Core/Src/i2c.c ****   /* USER CODE END I2C1_Init 2 */
  57:Core/Src/i2c.c **** 
  58:Core/Src/i2c.c **** }
  75              		.loc 1 58 1 view .LVU22
  76 0026 08BD     		pop	{r3, pc}
  77              	.L4:
  52:Core/Src/i2c.c ****   }
  78              		.loc 1 52 5 is_stmt 1 view .LVU23
  79 0028 FFF7FEFF 		bl	Error_Handler
  80              	.LVL1:
  81              		.loc 1 58 1 is_stmt 0 view .LVU24
  82 002c FBE7     		b	.L1
  83              	.L6:
  84 002e 00BF     		.align	2
  85              	.L5:
  86 0030 00000000 		.word	.LANCHOR0
  87 0034 00540040 		.word	1073763328
  88 0038 801A0600 		.word	400000
  89              		.cfi_endproc
  90              	.LFE65:
  92              		.section	.text.MX_I2C2_Init,"ax",%progbits
  93              		.align	1
  94              		.global	MX_I2C2_Init
  95              		.syntax unified
  96              		.thumb
  97              		.thumb_func
  99              	MX_I2C2_Init:
 100              	.LFB66:
  59:Core/Src/i2c.c **** /* I2C2 init function */
  60:Core/Src/i2c.c **** void MX_I2C2_Init(void)
  61:Core/Src/i2c.c **** {
 101              		.loc 1 61 1 is_stmt 1 view -0
 102              		.cfi_startproc
 103              		@ args = 0, pretend = 0, frame = 0
 104              		@ frame_needed = 0, uses_anonymous_args = 0
 105 0000 08B5     		push	{r3, lr}
 106              	.LCFI1:
 107              		.cfi_def_cfa_offset 8
 108              		.cfi_offset 3, -8
 109              		.cfi_offset 14, -4
  62:Core/Src/i2c.c **** 
  63:Core/Src/i2c.c ****   /* USER CODE BEGIN I2C2_Init 0 */
  64:Core/Src/i2c.c **** 
ARM GAS  C:\Users\ADMINI~1\AppData\Local\Temp\ccJw1j3v.s 			page 4


  65:Core/Src/i2c.c ****   /* USER CODE END I2C2_Init 0 */
  66:Core/Src/i2c.c **** 
  67:Core/Src/i2c.c ****   /* USER CODE BEGIN I2C2_Init 1 */
  68:Core/Src/i2c.c **** 
  69:Core/Src/i2c.c ****   /* USER CODE END I2C2_Init 1 */
  70:Core/Src/i2c.c ****   hi2c2.Instance = I2C2;
 110              		.loc 1 70 3 view .LVU26
 111              		.loc 1 70 18 is_stmt 0 view .LVU27
 112 0002 0B48     		ldr	r0, .L11
 113 0004 0B4B     		ldr	r3, .L11+4
 114 0006 0360     		str	r3, [r0]
  71:Core/Src/i2c.c ****   hi2c2.Init.ClockSpeed = 400000;
 115              		.loc 1 71 3 is_stmt 1 view .LVU28
 116              		.loc 1 71 25 is_stmt 0 view .LVU29
 117 0008 0B4B     		ldr	r3, .L11+8
 118 000a 4360     		str	r3, [r0, #4]
  72:Core/Src/i2c.c ****   hi2c2.Init.DutyCycle = I2C_DUTYCYCLE_16_9;
 119              		.loc 1 72 3 is_stmt 1 view .LVU30
 120              		.loc 1 72 24 is_stmt 0 view .LVU31
 121 000c 4FF48042 		mov	r2, #16384
 122 0010 8260     		str	r2, [r0, #8]
  73:Core/Src/i2c.c ****   hi2c2.Init.OwnAddress1 = 0;
 123              		.loc 1 73 3 is_stmt 1 view .LVU32
 124              		.loc 1 73 26 is_stmt 0 view .LVU33
 125 0012 0023     		movs	r3, #0
 126 0014 C360     		str	r3, [r0, #12]
  74:Core/Src/i2c.c ****   hi2c2.Init.AddressingMode = I2C_ADDRESSINGMODE_7BIT;
 127              		.loc 1 74 3 is_stmt 1 view .LVU34
 128              		.loc 1 74 29 is_stmt 0 view .LVU35
 129 0016 0261     		str	r2, [r0, #16]
  75:Core/Src/i2c.c ****   hi2c2.Init.DualAddressMode = I2C_DUALADDRESS_DISABLE;
 130              		.loc 1 75 3 is_stmt 1 view .LVU36
 131              		.loc 1 75 30 is_stmt 0 view .LVU37
 132 0018 4361     		str	r3, [r0, #20]
  76:Core/Src/i2c.c ****   hi2c2.Init.OwnAddress2 = 0;
 133              		.loc 1 76 3 is_stmt 1 view .LVU38
 134              		.loc 1 76 26 is_stmt 0 view .LVU39
 135 001a 8361     		str	r3, [r0, #24]
  77:Core/Src/i2c.c ****   hi2c2.Init.GeneralCallMode = I2C_GENERALCALL_DISABLE;
 136              		.loc 1 77 3 is_stmt 1 view .LVU40
 137              		.loc 1 77 30 is_stmt 0 view .LVU41
 138 001c C361     		str	r3, [r0, #28]
  78:Core/Src/i2c.c ****   hi2c2.Init.NoStretchMode = I2C_NOSTRETCH_DISABLE;
 139              		.loc 1 78 3 is_stmt 1 view .LVU42
 140              		.loc 1 78 28 is_stmt 0 view .LVU43
 141 001e 0362     		str	r3, [r0, #32]
  79:Core/Src/i2c.c ****   if (HAL_I2C_Init(&hi2c2) != HAL_OK)
 142              		.loc 1 79 3 is_stmt 1 view .LVU44
 143              		.loc 1 79 7 is_stmt 0 view .LVU45
 144 0020 FFF7FEFF 		bl	HAL_I2C_Init
 145              	.LVL2:
 146              		.loc 1 79 6 view .LVU46
 147 0024 00B9     		cbnz	r0, .L10
 148              	.L7:
  80:Core/Src/i2c.c ****   {
  81:Core/Src/i2c.c ****     Error_Handler();
  82:Core/Src/i2c.c ****   }
ARM GAS  C:\Users\ADMINI~1\AppData\Local\Temp\ccJw1j3v.s 			page 5


  83:Core/Src/i2c.c ****   /* USER CODE BEGIN I2C2_Init 2 */
  84:Core/Src/i2c.c **** 
  85:Core/Src/i2c.c ****   /* USER CODE END I2C2_Init 2 */
  86:Core/Src/i2c.c **** 
  87:Core/Src/i2c.c **** }
 149              		.loc 1 87 1 view .LVU47
 150 0026 08BD     		pop	{r3, pc}
 151              	.L10:
  81:Core/Src/i2c.c ****   }
 152              		.loc 1 81 5 is_stmt 1 view .LVU48
 153 0028 FFF7FEFF 		bl	Error_Handler
 154              	.LVL3:
 155              		.loc 1 87 1 is_stmt 0 view .LVU49
 156 002c FBE7     		b	.L7
 157              	.L12:
 158 002e 00BF     		.align	2
 159              	.L11:
 160 0030 00000000 		.word	.LANCHOR1
 161 0034 00580040 		.word	1073764352
 162 0038 801A0600 		.word	400000
 163              		.cfi_endproc
 164              	.LFE66:
 166              		.section	.text.HAL_I2C_MspInit,"ax",%progbits
 167              		.align	1
 168              		.global	HAL_I2C_MspInit
 169              		.syntax unified
 170              		.thumb
 171              		.thumb_func
 173              	HAL_I2C_MspInit:
 174              	.LVL4:
 175              	.LFB67:
  88:Core/Src/i2c.c **** 
  89:Core/Src/i2c.c **** void HAL_I2C_MspInit(I2C_HandleTypeDef* i2cHandle)
  90:Core/Src/i2c.c **** {
 176              		.loc 1 90 1 is_stmt 1 view -0
 177              		.cfi_startproc
 178              		@ args = 0, pretend = 0, frame = 32
 179              		@ frame_needed = 0, uses_anonymous_args = 0
 180              		.loc 1 90 1 is_stmt 0 view .LVU51
 181 0000 10B5     		push	{r4, lr}
 182              	.LCFI2:
 183              		.cfi_def_cfa_offset 8
 184              		.cfi_offset 4, -8
 185              		.cfi_offset 14, -4
 186 0002 88B0     		sub	sp, sp, #32
 187              	.LCFI3:
 188              		.cfi_def_cfa_offset 40
  91:Core/Src/i2c.c **** 
  92:Core/Src/i2c.c ****   GPIO_InitTypeDef GPIO_InitStruct = {0};
 189              		.loc 1 92 3 is_stmt 1 view .LVU52
 190              		.loc 1 92 20 is_stmt 0 view .LVU53
 191 0004 0023     		movs	r3, #0
 192 0006 0493     		str	r3, [sp, #16]
 193 0008 0593     		str	r3, [sp, #20]
 194 000a 0693     		str	r3, [sp, #24]
 195 000c 0793     		str	r3, [sp, #28]
  93:Core/Src/i2c.c ****   if(i2cHandle->Instance==I2C1)
ARM GAS  C:\Users\ADMINI~1\AppData\Local\Temp\ccJw1j3v.s 			page 6


 196              		.loc 1 93 3 is_stmt 1 view .LVU54
 197              		.loc 1 93 15 is_stmt 0 view .LVU55
 198 000e 0368     		ldr	r3, [r0]
 199              		.loc 1 93 5 view .LVU56
 200 0010 224A     		ldr	r2, .L19
 201 0012 9342     		cmp	r3, r2
 202 0014 04D0     		beq	.L17
  94:Core/Src/i2c.c ****   {
  95:Core/Src/i2c.c ****   /* USER CODE BEGIN I2C1_MspInit 0 */
  96:Core/Src/i2c.c **** 
  97:Core/Src/i2c.c ****   /* USER CODE END I2C1_MspInit 0 */
  98:Core/Src/i2c.c **** 
  99:Core/Src/i2c.c ****     __HAL_RCC_GPIOB_CLK_ENABLE();
 100:Core/Src/i2c.c ****     /**I2C1 GPIO Configuration
 101:Core/Src/i2c.c ****     PB6     ------> I2C1_SCL
 102:Core/Src/i2c.c ****     PB7     ------> I2C1_SDA
 103:Core/Src/i2c.c ****     */
 104:Core/Src/i2c.c ****     GPIO_InitStruct.Pin = GPIO_PIN_6|GPIO_PIN_7;
 105:Core/Src/i2c.c ****     GPIO_InitStruct.Mode = GPIO_MODE_AF_OD;
 106:Core/Src/i2c.c ****     GPIO_InitStruct.Speed = GPIO_SPEED_FREQ_HIGH;
 107:Core/Src/i2c.c ****     HAL_GPIO_Init(GPIOB, &GPIO_InitStruct);
 108:Core/Src/i2c.c **** 
 109:Core/Src/i2c.c ****     /* I2C1 clock enable */
 110:Core/Src/i2c.c ****     __HAL_RCC_I2C1_CLK_ENABLE();
 111:Core/Src/i2c.c ****   /* USER CODE BEGIN I2C1_MspInit 1 */
 112:Core/Src/i2c.c **** 
 113:Core/Src/i2c.c ****   /* USER CODE END I2C1_MspInit 1 */
 114:Core/Src/i2c.c ****   }
 115:Core/Src/i2c.c ****   else if(i2cHandle->Instance==I2C2)
 203              		.loc 1 115 8 is_stmt 1 view .LVU57
 204              		.loc 1 115 10 is_stmt 0 view .LVU58
 205 0016 224A     		ldr	r2, .L19+4
 206 0018 9342     		cmp	r3, r2
 207 001a 1FD0     		beq	.L18
 208              	.LVL5:
 209              	.L13:
 116:Core/Src/i2c.c ****   {
 117:Core/Src/i2c.c ****   /* USER CODE BEGIN I2C2_MspInit 0 */
 118:Core/Src/i2c.c **** 
 119:Core/Src/i2c.c ****   /* USER CODE END I2C2_MspInit 0 */
 120:Core/Src/i2c.c **** 
 121:Core/Src/i2c.c ****     __HAL_RCC_GPIOB_CLK_ENABLE();
 122:Core/Src/i2c.c ****     /**I2C2 GPIO Configuration
 123:Core/Src/i2c.c ****     PB10     ------> I2C2_SCL
 124:Core/Src/i2c.c ****     PB11     ------> I2C2_SDA
 125:Core/Src/i2c.c ****     */
 126:Core/Src/i2c.c ****     GPIO_InitStruct.Pin = MAX_SCl_Pin|MAX_SDA_Pin;
 127:Core/Src/i2c.c ****     GPIO_InitStruct.Mode = GPIO_MODE_AF_OD;
 128:Core/Src/i2c.c ****     GPIO_InitStruct.Speed = GPIO_SPEED_FREQ_HIGH;
 129:Core/Src/i2c.c ****     HAL_GPIO_Init(GPIOB, &GPIO_InitStruct);
 130:Core/Src/i2c.c **** 
 131:Core/Src/i2c.c ****     /* I2C2 clock enable */
 132:Core/Src/i2c.c ****     __HAL_RCC_I2C2_CLK_ENABLE();
 133:Core/Src/i2c.c ****   /* USER CODE BEGIN I2C2_MspInit 1 */
 134:Core/Src/i2c.c **** 
 135:Core/Src/i2c.c ****   /* USER CODE END I2C2_MspInit 1 */
 136:Core/Src/i2c.c ****   }
ARM GAS  C:\Users\ADMINI~1\AppData\Local\Temp\ccJw1j3v.s 			page 7


 137:Core/Src/i2c.c **** }
 210              		.loc 1 137 1 view .LVU59
 211 001c 08B0     		add	sp, sp, #32
 212              	.LCFI4:
 213              		.cfi_remember_state
 214              		.cfi_def_cfa_offset 8
 215              		@ sp needed
 216 001e 10BD     		pop	{r4, pc}
 217              	.LVL6:
 218              	.L17:
 219              	.LCFI5:
 220              		.cfi_restore_state
  99:Core/Src/i2c.c ****     /**I2C1 GPIO Configuration
 221              		.loc 1 99 5 is_stmt 1 view .LVU60
 222              	.LBB2:
  99:Core/Src/i2c.c ****     /**I2C1 GPIO Configuration
 223              		.loc 1 99 5 view .LVU61
  99:Core/Src/i2c.c ****     /**I2C1 GPIO Configuration
 224              		.loc 1 99 5 view .LVU62
 225 0020 204C     		ldr	r4, .L19+8
 226 0022 A369     		ldr	r3, [r4, #24]
 227 0024 43F00803 		orr	r3, r3, #8
 228 0028 A361     		str	r3, [r4, #24]
  99:Core/Src/i2c.c ****     /**I2C1 GPIO Configuration
 229              		.loc 1 99 5 view .LVU63
 230 002a A369     		ldr	r3, [r4, #24]
 231 002c 03F00803 		and	r3, r3, #8
 232 0030 0093     		str	r3, [sp]
  99:Core/Src/i2c.c ****     /**I2C1 GPIO Configuration
 233              		.loc 1 99 5 view .LVU64
 234 0032 009B     		ldr	r3, [sp]
 235              	.LBE2:
  99:Core/Src/i2c.c ****     /**I2C1 GPIO Configuration
 236              		.loc 1 99 5 view .LVU65
 104:Core/Src/i2c.c ****     GPIO_InitStruct.Mode = GPIO_MODE_AF_OD;
 237              		.loc 1 104 5 view .LVU66
 104:Core/Src/i2c.c ****     GPIO_InitStruct.Mode = GPIO_MODE_AF_OD;
 238              		.loc 1 104 25 is_stmt 0 view .LVU67
 239 0034 C023     		movs	r3, #192
 240 0036 0493     		str	r3, [sp, #16]
 105:Core/Src/i2c.c ****     GPIO_InitStruct.Speed = GPIO_SPEED_FREQ_HIGH;
 241              		.loc 1 105 5 is_stmt 1 view .LVU68
 105:Core/Src/i2c.c ****     GPIO_InitStruct.Speed = GPIO_SPEED_FREQ_HIGH;
 242              		.loc 1 105 26 is_stmt 0 view .LVU69
 243 0038 1223     		movs	r3, #18
 244 003a 0593     		str	r3, [sp, #20]
 106:Core/Src/i2c.c ****     HAL_GPIO_Init(GPIOB, &GPIO_InitStruct);
 245              		.loc 1 106 5 is_stmt 1 view .LVU70
 106:Core/Src/i2c.c ****     HAL_GPIO_Init(GPIOB, &GPIO_InitStruct);
 246              		.loc 1 106 27 is_stmt 0 view .LVU71
 247 003c 0323     		movs	r3, #3
 248 003e 0793     		str	r3, [sp, #28]
 107:Core/Src/i2c.c **** 
 249              		.loc 1 107 5 is_stmt 1 view .LVU72
 250 0040 04A9     		add	r1, sp, #16
 251 0042 1948     		ldr	r0, .L19+12
 252              	.LVL7:
ARM GAS  C:\Users\ADMINI~1\AppData\Local\Temp\ccJw1j3v.s 			page 8


 107:Core/Src/i2c.c **** 
 253              		.loc 1 107 5 is_stmt 0 view .LVU73
 254 0044 FFF7FEFF 		bl	HAL_GPIO_Init
 255              	.LVL8:
 110:Core/Src/i2c.c ****   /* USER CODE BEGIN I2C1_MspInit 1 */
 256              		.loc 1 110 5 is_stmt 1 view .LVU74
 257              	.LBB3:
 110:Core/Src/i2c.c ****   /* USER CODE BEGIN I2C1_MspInit 1 */
 258              		.loc 1 110 5 view .LVU75
 110:Core/Src/i2c.c ****   /* USER CODE BEGIN I2C1_MspInit 1 */
 259              		.loc 1 110 5 view .LVU76
 260 0048 E369     		ldr	r3, [r4, #28]
 261 004a 43F40013 		orr	r3, r3, #2097152
 262 004e E361     		str	r3, [r4, #28]
 110:Core/Src/i2c.c ****   /* USER CODE BEGIN I2C1_MspInit 1 */
 263              		.loc 1 110 5 view .LVU77
 264 0050 E369     		ldr	r3, [r4, #28]
 265 0052 03F40013 		and	r3, r3, #2097152
 266 0056 0193     		str	r3, [sp, #4]
 110:Core/Src/i2c.c ****   /* USER CODE BEGIN I2C1_MspInit 1 */
 267              		.loc 1 110 5 view .LVU78
 268 0058 019B     		ldr	r3, [sp, #4]
 269              	.LBE3:
 110:Core/Src/i2c.c ****   /* USER CODE BEGIN I2C1_MspInit 1 */
 270              		.loc 1 110 5 view .LVU79
 271 005a DFE7     		b	.L13
 272              	.LVL9:
 273              	.L18:
 121:Core/Src/i2c.c ****     /**I2C2 GPIO Configuration
 274              		.loc 1 121 5 view .LVU80
 275              	.LBB4:
 121:Core/Src/i2c.c ****     /**I2C2 GPIO Configuration
 276              		.loc 1 121 5 view .LVU81
 121:Core/Src/i2c.c ****     /**I2C2 GPIO Configuration
 277              		.loc 1 121 5 view .LVU82
 278 005c 114C     		ldr	r4, .L19+8
 279 005e A369     		ldr	r3, [r4, #24]
 280 0060 43F00803 		orr	r3, r3, #8
 281 0064 A361     		str	r3, [r4, #24]
 121:Core/Src/i2c.c ****     /**I2C2 GPIO Configuration
 282              		.loc 1 121 5 view .LVU83
 283 0066 A369     		ldr	r3, [r4, #24]
 284 0068 03F00803 		and	r3, r3, #8
 285 006c 0293     		str	r3, [sp, #8]
 121:Core/Src/i2c.c ****     /**I2C2 GPIO Configuration
 286              		.loc 1 121 5 view .LVU84
 287 006e 029B     		ldr	r3, [sp, #8]
 288              	.LBE4:
 121:Core/Src/i2c.c ****     /**I2C2 GPIO Configuration
 289              		.loc 1 121 5 view .LVU85
 126:Core/Src/i2c.c ****     GPIO_InitStruct.Mode = GPIO_MODE_AF_OD;
 290              		.loc 1 126 5 view .LVU86
 126:Core/Src/i2c.c ****     GPIO_InitStruct.Mode = GPIO_MODE_AF_OD;
 291              		.loc 1 126 25 is_stmt 0 view .LVU87
 292 0070 4FF44063 		mov	r3, #3072
 293 0074 0493     		str	r3, [sp, #16]
 127:Core/Src/i2c.c ****     GPIO_InitStruct.Speed = GPIO_SPEED_FREQ_HIGH;
ARM GAS  C:\Users\ADMINI~1\AppData\Local\Temp\ccJw1j3v.s 			page 9


 294              		.loc 1 127 5 is_stmt 1 view .LVU88
 127:Core/Src/i2c.c ****     GPIO_InitStruct.Speed = GPIO_SPEED_FREQ_HIGH;
 295              		.loc 1 127 26 is_stmt 0 view .LVU89
 296 0076 1223     		movs	r3, #18
 297 0078 0593     		str	r3, [sp, #20]
 128:Core/Src/i2c.c ****     HAL_GPIO_Init(GPIOB, &GPIO_InitStruct);
 298              		.loc 1 128 5 is_stmt 1 view .LVU90
 128:Core/Src/i2c.c ****     HAL_GPIO_Init(GPIOB, &GPIO_InitStruct);
 299              		.loc 1 128 27 is_stmt 0 view .LVU91
 300 007a 0323     		movs	r3, #3
 301 007c 0793     		str	r3, [sp, #28]
 129:Core/Src/i2c.c **** 
 302              		.loc 1 129 5 is_stmt 1 view .LVU92
 303 007e 04A9     		add	r1, sp, #16
 304 0080 0948     		ldr	r0, .L19+12
 305              	.LVL10:
 129:Core/Src/i2c.c **** 
 306              		.loc 1 129 5 is_stmt 0 view .LVU93
 307 0082 FFF7FEFF 		bl	HAL_GPIO_Init
 308              	.LVL11:
 132:Core/Src/i2c.c ****   /* USER CODE BEGIN I2C2_MspInit 1 */
 309              		.loc 1 132 5 is_stmt 1 view .LVU94
 310              	.LBB5:
 132:Core/Src/i2c.c ****   /* USER CODE BEGIN I2C2_MspInit 1 */
 311              		.loc 1 132 5 view .LVU95
 132:Core/Src/i2c.c ****   /* USER CODE BEGIN I2C2_MspInit 1 */
 312              		.loc 1 132 5 view .LVU96
 313 0086 E369     		ldr	r3, [r4, #28]
 314 0088 43F48003 		orr	r3, r3, #4194304
 315 008c E361     		str	r3, [r4, #28]
 132:Core/Src/i2c.c ****   /* USER CODE BEGIN I2C2_MspInit 1 */
 316              		.loc 1 132 5 view .LVU97
 317 008e E369     		ldr	r3, [r4, #28]
 318 0090 03F48003 		and	r3, r3, #4194304
 319 0094 0393     		str	r3, [sp, #12]
 132:Core/Src/i2c.c ****   /* USER CODE BEGIN I2C2_MspInit 1 */
 320              		.loc 1 132 5 view .LVU98
 321 0096 039B     		ldr	r3, [sp, #12]
 322              	.LBE5:
 132:Core/Src/i2c.c ****   /* USER CODE BEGIN I2C2_MspInit 1 */
 323              		.loc 1 132 5 view .LVU99
 324              		.loc 1 137 1 is_stmt 0 view .LVU100
 325 0098 C0E7     		b	.L13
 326              	.L20:
 327 009a 00BF     		.align	2
 328              	.L19:
 329 009c 00540040 		.word	1073763328
 330 00a0 00580040 		.word	1073764352
 331 00a4 00100240 		.word	1073876992
 332 00a8 000C0140 		.word	1073810432
 333              		.cfi_endproc
 334              	.LFE67:
 336              		.section	.text.HAL_I2C_MspDeInit,"ax",%progbits
 337              		.align	1
 338              		.global	HAL_I2C_MspDeInit
 339              		.syntax unified
 340              		.thumb
ARM GAS  C:\Users\ADMINI~1\AppData\Local\Temp\ccJw1j3v.s 			page 10


 341              		.thumb_func
 343              	HAL_I2C_MspDeInit:
 344              	.LVL12:
 345              	.LFB68:
 138:Core/Src/i2c.c **** 
 139:Core/Src/i2c.c **** void HAL_I2C_MspDeInit(I2C_HandleTypeDef* i2cHandle)
 140:Core/Src/i2c.c **** {
 346              		.loc 1 140 1 is_stmt 1 view -0
 347              		.cfi_startproc
 348              		@ args = 0, pretend = 0, frame = 0
 349              		@ frame_needed = 0, uses_anonymous_args = 0
 350              		.loc 1 140 1 is_stmt 0 view .LVU102
 351 0000 10B5     		push	{r4, lr}
 352              	.LCFI6:
 353              		.cfi_def_cfa_offset 8
 354              		.cfi_offset 4, -8
 355              		.cfi_offset 14, -4
 141:Core/Src/i2c.c **** 
 142:Core/Src/i2c.c ****   if(i2cHandle->Instance==I2C1)
 356              		.loc 1 142 3 is_stmt 1 view .LVU103
 357              		.loc 1 142 15 is_stmt 0 view .LVU104
 358 0002 0368     		ldr	r3, [r0]
 359              		.loc 1 142 5 view .LVU105
 360 0004 174A     		ldr	r2, .L27
 361 0006 9342     		cmp	r3, r2
 362 0008 03D0     		beq	.L25
 143:Core/Src/i2c.c ****   {
 144:Core/Src/i2c.c ****   /* USER CODE BEGIN I2C1_MspDeInit 0 */
 145:Core/Src/i2c.c **** 
 146:Core/Src/i2c.c ****   /* USER CODE END I2C1_MspDeInit 0 */
 147:Core/Src/i2c.c ****     /* Peripheral clock disable */
 148:Core/Src/i2c.c ****     __HAL_RCC_I2C1_CLK_DISABLE();
 149:Core/Src/i2c.c **** 
 150:Core/Src/i2c.c ****     /**I2C1 GPIO Configuration
 151:Core/Src/i2c.c ****     PB6     ------> I2C1_SCL
 152:Core/Src/i2c.c ****     PB7     ------> I2C1_SDA
 153:Core/Src/i2c.c ****     */
 154:Core/Src/i2c.c ****     HAL_GPIO_DeInit(GPIOB, GPIO_PIN_6);
 155:Core/Src/i2c.c **** 
 156:Core/Src/i2c.c ****     HAL_GPIO_DeInit(GPIOB, GPIO_PIN_7);
 157:Core/Src/i2c.c **** 
 158:Core/Src/i2c.c ****     /* I2C1 interrupt Deinit */
 159:Core/Src/i2c.c ****     HAL_NVIC_DisableIRQ(I2C1_EV_IRQn);
 160:Core/Src/i2c.c ****   /* USER CODE BEGIN I2C1_MspDeInit 1 */
 161:Core/Src/i2c.c **** 
 162:Core/Src/i2c.c ****   /* USER CODE END I2C1_MspDeInit 1 */
 163:Core/Src/i2c.c ****   }
 164:Core/Src/i2c.c ****   else if(i2cHandle->Instance==I2C2)
 363              		.loc 1 164 8 is_stmt 1 view .LVU106
 364              		.loc 1 164 10 is_stmt 0 view .LVU107
 365 000a 174A     		ldr	r2, .L27+4
 366 000c 9342     		cmp	r3, r2
 367 000e 13D0     		beq	.L26
 368              	.LVL13:
 369              	.L21:
 165:Core/Src/i2c.c ****   {
 166:Core/Src/i2c.c ****   /* USER CODE BEGIN I2C2_MspDeInit 0 */
ARM GAS  C:\Users\ADMINI~1\AppData\Local\Temp\ccJw1j3v.s 			page 11


 167:Core/Src/i2c.c **** 
 168:Core/Src/i2c.c ****   /* USER CODE END I2C2_MspDeInit 0 */
 169:Core/Src/i2c.c ****     /* Peripheral clock disable */
 170:Core/Src/i2c.c ****     __HAL_RCC_I2C2_CLK_DISABLE();
 171:Core/Src/i2c.c **** 
 172:Core/Src/i2c.c ****     /**I2C2 GPIO Configuration
 173:Core/Src/i2c.c ****     PB10     ------> I2C2_SCL
 174:Core/Src/i2c.c ****     PB11     ------> I2C2_SDA
 175:Core/Src/i2c.c ****     */
 176:Core/Src/i2c.c ****     HAL_GPIO_DeInit(MAX_SCl_GPIO_Port, MAX_SCl_Pin);
 177:Core/Src/i2c.c **** 
 178:Core/Src/i2c.c ****     HAL_GPIO_DeInit(MAX_SDA_GPIO_Port, MAX_SDA_Pin);
 179:Core/Src/i2c.c **** 
 180:Core/Src/i2c.c ****     /* I2C2 interrupt Deinit */
 181:Core/Src/i2c.c ****     HAL_NVIC_DisableIRQ(I2C2_EV_IRQn);
 182:Core/Src/i2c.c ****   /* USER CODE BEGIN I2C2_MspDeInit 1 */
 183:Core/Src/i2c.c **** 
 184:Core/Src/i2c.c ****   /* USER CODE END I2C2_MspDeInit 1 */
 185:Core/Src/i2c.c ****   }
 186:Core/Src/i2c.c **** }
 370              		.loc 1 186 1 view .LVU108
 371 0010 10BD     		pop	{r4, pc}
 372              	.LVL14:
 373              	.L25:
 148:Core/Src/i2c.c **** 
 374              		.loc 1 148 5 is_stmt 1 view .LVU109
 375 0012 02F5DE32 		add	r2, r2, #113664
 376 0016 D369     		ldr	r3, [r2, #28]
 377 0018 23F40013 		bic	r3, r3, #2097152
 378 001c D361     		str	r3, [r2, #28]
 154:Core/Src/i2c.c **** 
 379              		.loc 1 154 5 view .LVU110
 380 001e 134C     		ldr	r4, .L27+8
 381 0020 4021     		movs	r1, #64
 382 0022 2046     		mov	r0, r4
 383              	.LVL15:
 154:Core/Src/i2c.c **** 
 384              		.loc 1 154 5 is_stmt 0 view .LVU111
 385 0024 FFF7FEFF 		bl	HAL_GPIO_DeInit
 386              	.LVL16:
 156:Core/Src/i2c.c **** 
 387              		.loc 1 156 5 is_stmt 1 view .LVU112
 388 0028 8021     		movs	r1, #128
 389 002a 2046     		mov	r0, r4
 390 002c FFF7FEFF 		bl	HAL_GPIO_DeInit
 391              	.LVL17:
 159:Core/Src/i2c.c ****   /* USER CODE BEGIN I2C1_MspDeInit 1 */
 392              		.loc 1 159 5 view .LVU113
 393 0030 1F20     		movs	r0, #31
 394 0032 FFF7FEFF 		bl	HAL_NVIC_DisableIRQ
 395              	.LVL18:
 396 0036 EBE7     		b	.L21
 397              	.LVL19:
 398              	.L26:
 170:Core/Src/i2c.c **** 
 399              		.loc 1 170 5 view .LVU114
 400 0038 02F5DC32 		add	r2, r2, #112640
ARM GAS  C:\Users\ADMINI~1\AppData\Local\Temp\ccJw1j3v.s 			page 12


 401 003c D369     		ldr	r3, [r2, #28]
 402 003e 23F48003 		bic	r3, r3, #4194304
 403 0042 D361     		str	r3, [r2, #28]
 176:Core/Src/i2c.c **** 
 404              		.loc 1 176 5 view .LVU115
 405 0044 094C     		ldr	r4, .L27+8
 406 0046 4FF48061 		mov	r1, #1024
 407 004a 2046     		mov	r0, r4
 408              	.LVL20:
 176:Core/Src/i2c.c **** 
 409              		.loc 1 176 5 is_stmt 0 view .LVU116
 410 004c FFF7FEFF 		bl	HAL_GPIO_DeInit
 411              	.LVL21:
 178:Core/Src/i2c.c **** 
 412              		.loc 1 178 5 is_stmt 1 view .LVU117
 413 0050 4FF40061 		mov	r1, #2048
 414 0054 2046     		mov	r0, r4
 415 0056 FFF7FEFF 		bl	HAL_GPIO_DeInit
 416              	.LVL22:
 181:Core/Src/i2c.c ****   /* USER CODE BEGIN I2C2_MspDeInit 1 */
 417              		.loc 1 181 5 view .LVU118
 418 005a 2120     		movs	r0, #33
 419 005c FFF7FEFF 		bl	HAL_NVIC_DisableIRQ
 420              	.LVL23:
 421              		.loc 1 186 1 is_stmt 0 view .LVU119
 422 0060 D6E7     		b	.L21
 423              	.L28:
 424 0062 00BF     		.align	2
 425              	.L27:
 426 0064 00540040 		.word	1073763328
 427 0068 00580040 		.word	1073764352
 428 006c 000C0140 		.word	1073810432
 429              		.cfi_endproc
 430              	.LFE68:
 432              		.global	hi2c2
 433              		.global	hi2c1
 434              		.section	.bss.hi2c1,"aw",%nobits
 435              		.align	2
 436              		.set	.LANCHOR0,. + 0
 439              	hi2c1:
 440 0000 00000000 		.space	84
 440      00000000 
 440      00000000 
 440      00000000 
 440      00000000 
 441              		.section	.bss.hi2c2,"aw",%nobits
 442              		.align	2
 443              		.set	.LANCHOR1,. + 0
 446              	hi2c2:
 447 0000 00000000 		.space	84
 447      00000000 
 447      00000000 
 447      00000000 
 447      00000000 
 448              		.text
 449              	.Letext0:
 450              		.file 2 "c:\\program files (x86)\\gnu arm embedded toolchain\\10 2021.10\\arm-none-eabi\\include\\
ARM GAS  C:\Users\ADMINI~1\AppData\Local\Temp\ccJw1j3v.s 			page 13


 451              		.file 3 "c:\\program files (x86)\\gnu arm embedded toolchain\\10 2021.10\\arm-none-eabi\\include\\
 452              		.file 4 "Drivers/CMSIS/Device/ST/STM32F1xx/Include/stm32f103xb.h"
 453              		.file 5 "Drivers/STM32F1xx_HAL_Driver/Inc/stm32f1xx_hal_def.h"
 454              		.file 6 "Drivers/STM32F1xx_HAL_Driver/Inc/stm32f1xx_hal_gpio.h"
 455              		.file 7 "Drivers/STM32F1xx_HAL_Driver/Inc/stm32f1xx_hal_dma.h"
 456              		.file 8 "Drivers/STM32F1xx_HAL_Driver/Inc/stm32f1xx_hal_i2c.h"
 457              		.file 9 "Core/Inc/i2c.h"
 458              		.file 10 "Drivers/STM32F1xx_HAL_Driver/Inc/stm32f1xx_hal_cortex.h"
 459              		.file 11 "Core/Inc/main.h"
ARM GAS  C:\Users\ADMINI~1\AppData\Local\Temp\ccJw1j3v.s 			page 14

