ARM GAS  C:\Users\ADMINI~1\AppData\Local\Temp\cc1W5cCT.s 			page 1


   1              		.cpu cortex-m3
   2              		.arch armv7-m
   3              		.fpu softvfp
   4              		.eabi_attribute 20, 1
   5              		.eabi_attribute 21, 1
   6              		.eabi_attribute 23, 3
   7              		.eabi_attribute 24, 1
   8              		.eabi_attribute 25, 1
   9              		.eabi_attribute 26, 1
  10              		.eabi_attribute 30, 1
  11              		.eabi_attribute 34, 1
  12              		.eabi_attribute 18, 4
  13              		.file	"main.c"
  14              		.text
  15              	.Ltext0:
  16              		.cfi_sections	.debug_frame
  17              		.section	.text.MX_NVIC_Init,"ax",%progbits
  18              		.align	1
  19              		.syntax unified
  20              		.thumb
  21              		.thumb_func
  23              	MX_NVIC_Init:
  24              	.LFB68:
  25              		.file 1 "Core/Src/main.c"
   1:Core/Src/main.c **** /* USER CODE BEGIN Header */
   2:Core/Src/main.c **** /**
   3:Core/Src/main.c ****   ******************************************************************************
   4:Core/Src/main.c ****   * @file           : main.c
   5:Core/Src/main.c ****   * @brief          : Main program body
   6:Core/Src/main.c ****   ******************************************************************************
   7:Core/Src/main.c ****   * @attention
   8:Core/Src/main.c ****   *
   9:Core/Src/main.c ****   * Copyright (c) 2023 STMicroelectronics.
  10:Core/Src/main.c ****   * All rights reserved.
  11:Core/Src/main.c ****   *
  12:Core/Src/main.c ****   * This software is licensed under terms that can be found in the LICENSE file
  13:Core/Src/main.c ****   * in the root directory of this software component.
  14:Core/Src/main.c ****   * If no LICENSE file comes with this software, it is provided AS-IS.
  15:Core/Src/main.c ****   *
  16:Core/Src/main.c ****   ******************************************************************************
  17:Core/Src/main.c ****   */
  18:Core/Src/main.c **** /* USER CODE END Header */
  19:Core/Src/main.c **** /* Includes ------------------------------------------------------------------*/
  20:Core/Src/main.c **** #include "main.h"
  21:Core/Src/main.c **** #include "i2c.h"
  22:Core/Src/main.c **** #include "usart.h"
  23:Core/Src/main.c **** #include "gpio.h"
  24:Core/Src/main.c **** 
  25:Core/Src/main.c **** /* Private includes ----------------------------------------------------------*/
  26:Core/Src/main.c **** /* USER CODE BEGIN Includes */
  27:Core/Src/main.c **** #include "max30102.h"
  28:Core/Src/main.c **** #include "debug.h"
  29:Core/Src/main.c **** #include "helperFunc.h"
  30:Core/Src/main.c **** #include "oled.h"
  31:Core/Src/main.c **** /* USER CODE END Includes */
  32:Core/Src/main.c **** 
  33:Core/Src/main.c **** /* Private typedef -----------------------------------------------------------*/
ARM GAS  C:\Users\ADMINI~1\AppData\Local\Temp\cc1W5cCT.s 			page 2


  34:Core/Src/main.c **** /* USER CODE BEGIN PTD */
  35:Core/Src/main.c **** 
  36:Core/Src/main.c **** /* USER CODE END PTD */
  37:Core/Src/main.c **** 
  38:Core/Src/main.c **** /* Private define ------------------------------------------------------------*/
  39:Core/Src/main.c **** /* USER CODE BEGIN PD */
  40:Core/Src/main.c **** /* USER CODE END PD */
  41:Core/Src/main.c **** 
  42:Core/Src/main.c **** /* Private macro -------------------------------------------------------------*/
  43:Core/Src/main.c **** /* USER CODE BEGIN PM */
  44:Core/Src/main.c **** 
  45:Core/Src/main.c **** /* USER CODE END PM */
  46:Core/Src/main.c **** 
  47:Core/Src/main.c **** /* Private variables ---------------------------------------------------------*/
  48:Core/Src/main.c **** 
  49:Core/Src/main.c **** /* USER CODE BEGIN PV */
  50:Core/Src/main.c **** extern I2C_HandleTypeDef hi2c2;
  51:Core/Src/main.c **** extern I2C_HandleTypeDef hi2c1;
  52:Core/Src/main.c **** /* USER CODE END PV */
  53:Core/Src/main.c **** 
  54:Core/Src/main.c **** /* Private function prototypes -----------------------------------------------*/
  55:Core/Src/main.c **** void SystemClock_Config(void);
  56:Core/Src/main.c **** static void MX_NVIC_Init(void);
  57:Core/Src/main.c **** /* USER CODE BEGIN PFP */
  58:Core/Src/main.c **** 
  59:Core/Src/main.c **** /* USER CODE END PFP */
  60:Core/Src/main.c **** 
  61:Core/Src/main.c **** /* Private user code ---------------------------------------------------------*/
  62:Core/Src/main.c **** /* USER CODE BEGIN 0 */
  63:Core/Src/main.c **** void HAL_UART_RxCpltCallback(UART_HandleTypeDef *huart)
  64:Core/Src/main.c **** {
  65:Core/Src/main.c ****   if(huart->Instance == USART1)
  66:Core/Src/main.c ****   {
  67:Core/Src/main.c ****     debug_callback();
  68:Core/Src/main.c ****     // HAL_UART_Transmit(&huart1, u8_TxBuff, sizeof(u8_TxBuff),100);
  69:Core/Src/main.c ****   }
  70:Core/Src/main.c **** }
  71:Core/Src/main.c **** /* USER CODE END 0 */
  72:Core/Src/main.c **** 
  73:Core/Src/main.c **** /**
  74:Core/Src/main.c ****   * @brief  The application entry point.
  75:Core/Src/main.c ****   * @retval int
  76:Core/Src/main.c ****   */
  77:Core/Src/main.c **** int main(void)
  78:Core/Src/main.c **** {
  79:Core/Src/main.c ****   /* USER CODE BEGIN 1 */
  80:Core/Src/main.c **** 
  81:Core/Src/main.c ****   /* USER CODE END 1 */
  82:Core/Src/main.c **** 
  83:Core/Src/main.c ****   /* MCU Configuration--------------------------------------------------------*/
  84:Core/Src/main.c **** 
  85:Core/Src/main.c ****   /* Reset of all peripherals, Initializes the Flash interface and the Systick. */
  86:Core/Src/main.c ****   HAL_Init();
  87:Core/Src/main.c **** 
  88:Core/Src/main.c ****   /* USER CODE BEGIN Init */
  89:Core/Src/main.c **** 
  90:Core/Src/main.c ****   /* USER CODE END Init */
ARM GAS  C:\Users\ADMINI~1\AppData\Local\Temp\cc1W5cCT.s 			page 3


  91:Core/Src/main.c **** 
  92:Core/Src/main.c ****   /* Configure the system clock */
  93:Core/Src/main.c ****   SystemClock_Config();
  94:Core/Src/main.c **** 
  95:Core/Src/main.c ****   /* USER CODE BEGIN SysInit */
  96:Core/Src/main.c **** 
  97:Core/Src/main.c ****   /* USER CODE END SysInit */
  98:Core/Src/main.c **** 
  99:Core/Src/main.c ****   /* Initialize all configured peripherals */
 100:Core/Src/main.c ****   MX_GPIO_Init();
 101:Core/Src/main.c ****   MX_USART1_UART_Init();
 102:Core/Src/main.c ****   MX_I2C2_Init();
 103:Core/Src/main.c ****   MX_I2C1_Init();
 104:Core/Src/main.c **** 
 105:Core/Src/main.c ****   /* Initialize interrupts */
 106:Core/Src/main.c ****   MX_NVIC_Init();
 107:Core/Src/main.c ****   /* USER CODE BEGIN 2 */
 108:Core/Src/main.c **** 
 109:Core/Src/main.c ****   Debug_Init();
 110:Core/Src/main.c **** 
 111:Core/Src/main.c ****     HAL_Delay(200);
 112:Core/Src/main.c ****     OLED_Init();
 113:Core/Src/main.c ****   max30102_init();
 114:Core/Src/main.c ****   /* USER CODE END 2 */
 115:Core/Src/main.c **** 
 116:Core/Src/main.c ****   /* Infinite loop */
 117:Core/Src/main.c ****   /* USER CODE BEGIN WHILE */
 118:Core/Src/main.c ****   while (1)
 119:Core/Src/main.c ****   {
 120:Core/Src/main.c ****     /* USER CODE END WHILE */
 121:Core/Src/main.c **** 
 122:Core/Src/main.c ****     /* USER CODE BEGIN 3 */
 123:Core/Src/main.c ****     //   logPC("alo\n");
 124:Core/Src/main.c ****     // HAL_Delay(2000);
 125:Core/Src/main.c ****     //  if (HAL_GPIO_ReadPin(GPIOB, GPIO_PIN_12) == GPIO_PIN_RESET)
 126:Core/Src/main.c ****     //     {
 127:Core/Src/main.c ****     //         HAL_GPIO_TogglePin(GPIOC, GPIO_PIN_13);
 128:Core/Src/main.c ****     //         max30102_cal();
 129:Core/Src/main.c **** 
 130:Core/Src/main.c ****     //         uint8_t spo2 = max30102_getSpO2();
 131:Core/Src/main.c ****     //         uint8_t heartReat = max30102_getHeartRate();
 132:Core/Src/main.c ****     //          if (heartReat % 1000 / 100 > 0){
 133:Core/Src/main.c ****     //         logPC("HR1: %3d\n", heartReat % 1000 / 100);
 134:Core/Src/main.c ****     //         // HAL_Delay(100);
 135:Core/Src/main.c ****     //          }
 136:Core/Src/main.c ****     //          else
 137:Core/Src/main.c ****     //          {
 138:Core/Src/main.c ****     //           logPC("HR: %3d\n", heartReat);
 139:Core/Src/main.c ****     //           // HAL_Delay(100);
 140:Core/Src/main.c ****     //          }
 141:Core/Src/main.c ****     //          HAL_Delay(50);
 142:Core/Src/main.c ****             
 143:Core/Src/main.c ****     //     }
 144:Core/Src/main.c ****     //  OLED_ShowString(10, 5, "Yeu Hoang Thanh Mai");
 145:Core/Src/main.c ****     if (HAL_GPIO_ReadPin(GPIOB, GPIO_PIN_12) == GPIO_PIN_RESET)
 146:Core/Src/main.c ****         {
 147:Core/Src/main.c ****             HAL_GPIO_TogglePin(GPIOC, GPIO_PIN_13);
ARM GAS  C:\Users\ADMINI~1\AppData\Local\Temp\cc1W5cCT.s 			page 4


 148:Core/Src/main.c ****             max30102_cal();
 149:Core/Src/main.c **** 
 150:Core/Src/main.c ****             uint8_t spo2 = max30102_getSpO2();
 151:Core/Src/main.c ****             uint8_t heartReat = max30102_getHeartRate();
 152:Core/Src/main.c ****             // 显示心率
 153:Core/Src/main.c ****             if (heartReat % 1000 / 100 > 0)
 154:Core/Src/main.c ****                 OLED_showNum(0, heartReat % 1000 / 100);
 155:Core/Src/main.c ****             else
 156:Core/Src/main.c ****                 OLED_showNum(0, 10);
 157:Core/Src/main.c ****             OLED_showNum(1, heartReat % 100 / 10);
 158:Core/Src/main.c ****             OLED_showNum(2, heartReat % 10);
 159:Core/Src/main.c ****             logPC("HR: %3d\n", heartReat);
 160:Core/Src/main.c ****             // 显示血氧
 161:Core/Src/main.c ****             if (spo2 % 1000 / 100 > 0)
 162:Core/Src/main.c ****                 OLED_showNum(3, spo2 % 1000 / 100);
 163:Core/Src/main.c ****             else
 164:Core/Src/main.c ****                 OLED_showNum(3, 10);
 165:Core/Src/main.c ****             OLED_showNum(4, spo2 % 100 / 10);
 166:Core/Src/main.c ****             OLED_showNum(5, spo2 % 10);
 167:Core/Src/main.c ****             // 画图表
 168:Core/Src/main.c ****             int16_t diff = max30102_getDiff();
 169:Core/Src/main.c ****             OLED_drawChart(diff);
 170:Core/Src/main.c ****             if (diff > 50)
 171:Core/Src/main.c ****                 OLED_showHeart(0);
 172:Core/Src/main.c ****             else
 173:Core/Src/main.c ****                 OLED_showHeart(1);
 174:Core/Src/main.c ****             // HAL_Delay(50);
 175:Core/Src/main.c ****             
 176:Core/Src/main.c ****         }
 177:Core/Src/main.c ****   }
 178:Core/Src/main.c ****   /* USER CODE END 3 */
 179:Core/Src/main.c **** }
 180:Core/Src/main.c **** 
 181:Core/Src/main.c **** /**
 182:Core/Src/main.c ****   * @brief System Clock Configuration
 183:Core/Src/main.c ****   * @retval None
 184:Core/Src/main.c ****   */
 185:Core/Src/main.c **** void SystemClock_Config(void)
 186:Core/Src/main.c **** {
 187:Core/Src/main.c ****   RCC_OscInitTypeDef RCC_OscInitStruct = {0};
 188:Core/Src/main.c ****   RCC_ClkInitTypeDef RCC_ClkInitStruct = {0};
 189:Core/Src/main.c **** 
 190:Core/Src/main.c ****   /** Initializes the RCC Oscillators according to the specified parameters
 191:Core/Src/main.c ****   * in the RCC_OscInitTypeDef structure.
 192:Core/Src/main.c ****   */
 193:Core/Src/main.c ****   RCC_OscInitStruct.OscillatorType = RCC_OSCILLATORTYPE_HSE;
 194:Core/Src/main.c ****   RCC_OscInitStruct.HSEState = RCC_HSE_ON;
 195:Core/Src/main.c ****   RCC_OscInitStruct.HSEPredivValue = RCC_HSE_PREDIV_DIV1;
 196:Core/Src/main.c ****   RCC_OscInitStruct.HSIState = RCC_HSI_ON;
 197:Core/Src/main.c ****   RCC_OscInitStruct.PLL.PLLState = RCC_PLL_ON;
 198:Core/Src/main.c ****   RCC_OscInitStruct.PLL.PLLSource = RCC_PLLSOURCE_HSE;
 199:Core/Src/main.c ****   RCC_OscInitStruct.PLL.PLLMUL = RCC_PLL_MUL9;
 200:Core/Src/main.c ****   if (HAL_RCC_OscConfig(&RCC_OscInitStruct) != HAL_OK)
 201:Core/Src/main.c ****   {
 202:Core/Src/main.c ****     Error_Handler();
 203:Core/Src/main.c ****   }
 204:Core/Src/main.c **** 
ARM GAS  C:\Users\ADMINI~1\AppData\Local\Temp\cc1W5cCT.s 			page 5


 205:Core/Src/main.c ****   /** Initializes the CPU, AHB and APB buses clocks
 206:Core/Src/main.c ****   */
 207:Core/Src/main.c ****   RCC_ClkInitStruct.ClockType = RCC_CLOCKTYPE_HCLK|RCC_CLOCKTYPE_SYSCLK
 208:Core/Src/main.c ****                               |RCC_CLOCKTYPE_PCLK1|RCC_CLOCKTYPE_PCLK2;
 209:Core/Src/main.c ****   RCC_ClkInitStruct.SYSCLKSource = RCC_SYSCLKSOURCE_PLLCLK;
 210:Core/Src/main.c ****   RCC_ClkInitStruct.AHBCLKDivider = RCC_SYSCLK_DIV1;
 211:Core/Src/main.c ****   RCC_ClkInitStruct.APB1CLKDivider = RCC_HCLK_DIV2;
 212:Core/Src/main.c ****   RCC_ClkInitStruct.APB2CLKDivider = RCC_HCLK_DIV1;
 213:Core/Src/main.c **** 
 214:Core/Src/main.c ****   if (HAL_RCC_ClockConfig(&RCC_ClkInitStruct, FLASH_LATENCY_2) != HAL_OK)
 215:Core/Src/main.c ****   {
 216:Core/Src/main.c ****     Error_Handler();
 217:Core/Src/main.c ****   }
 218:Core/Src/main.c **** }
 219:Core/Src/main.c **** 
 220:Core/Src/main.c **** /**
 221:Core/Src/main.c ****   * @brief NVIC Configuration.
 222:Core/Src/main.c ****   * @retval None
 223:Core/Src/main.c ****   */
 224:Core/Src/main.c **** static void MX_NVIC_Init(void)
 225:Core/Src/main.c **** {
  26              		.loc 1 225 1 view -0
  27              		.cfi_startproc
  28              		@ args = 0, pretend = 0, frame = 0
  29              		@ frame_needed = 0, uses_anonymous_args = 0
  30 0000 08B5     		push	{r3, lr}
  31              	.LCFI0:
  32              		.cfi_def_cfa_offset 8
  33              		.cfi_offset 3, -8
  34              		.cfi_offset 14, -4
 226:Core/Src/main.c ****   /* I2C2_EV_IRQn interrupt configuration */
 227:Core/Src/main.c ****   HAL_NVIC_SetPriority(I2C2_EV_IRQn, 1, 0);
  35              		.loc 1 227 3 view .LVU1
  36 0002 0022     		movs	r2, #0
  37 0004 0121     		movs	r1, #1
  38 0006 2120     		movs	r0, #33
  39 0008 FFF7FEFF 		bl	HAL_NVIC_SetPriority
  40              	.LVL0:
 228:Core/Src/main.c ****   HAL_NVIC_EnableIRQ(I2C2_EV_IRQn);
  41              		.loc 1 228 3 view .LVU2
  42 000c 2120     		movs	r0, #33
  43 000e FFF7FEFF 		bl	HAL_NVIC_EnableIRQ
  44              	.LVL1:
 229:Core/Src/main.c ****   /* I2C1_EV_IRQn interrupt configuration */
 230:Core/Src/main.c ****   HAL_NVIC_SetPriority(I2C1_EV_IRQn, 1, 0);
  45              		.loc 1 230 3 view .LVU3
  46 0012 0022     		movs	r2, #0
  47 0014 0121     		movs	r1, #1
  48 0016 1F20     		movs	r0, #31
  49 0018 FFF7FEFF 		bl	HAL_NVIC_SetPriority
  50              	.LVL2:
 231:Core/Src/main.c ****   HAL_NVIC_EnableIRQ(I2C1_EV_IRQn);
  51              		.loc 1 231 3 view .LVU4
  52 001c 1F20     		movs	r0, #31
  53 001e FFF7FEFF 		bl	HAL_NVIC_EnableIRQ
  54              	.LVL3:
 232:Core/Src/main.c **** }
ARM GAS  C:\Users\ADMINI~1\AppData\Local\Temp\cc1W5cCT.s 			page 6


  55              		.loc 1 232 1 is_stmt 0 view .LVU5
  56 0022 08BD     		pop	{r3, pc}
  57              		.cfi_endproc
  58              	.LFE68:
  60              		.section	.text.HAL_UART_RxCpltCallback,"ax",%progbits
  61              		.align	1
  62              		.global	HAL_UART_RxCpltCallback
  63              		.syntax unified
  64              		.thumb
  65              		.thumb_func
  67              	HAL_UART_RxCpltCallback:
  68              	.LVL4:
  69              	.LFB65:
  64:Core/Src/main.c ****   if(huart->Instance == USART1)
  70              		.loc 1 64 1 is_stmt 1 view -0
  71              		.cfi_startproc
  72              		@ args = 0, pretend = 0, frame = 0
  73              		@ frame_needed = 0, uses_anonymous_args = 0
  64:Core/Src/main.c ****   if(huart->Instance == USART1)
  74              		.loc 1 64 1 is_stmt 0 view .LVU7
  75 0000 08B5     		push	{r3, lr}
  76              	.LCFI1:
  77              		.cfi_def_cfa_offset 8
  78              		.cfi_offset 3, -8
  79              		.cfi_offset 14, -4
  65:Core/Src/main.c ****   {
  80              		.loc 1 65 3 is_stmt 1 view .LVU8
  65:Core/Src/main.c ****   {
  81              		.loc 1 65 11 is_stmt 0 view .LVU9
  82 0002 0268     		ldr	r2, [r0]
  65:Core/Src/main.c ****   {
  83              		.loc 1 65 5 view .LVU10
  84 0004 034B     		ldr	r3, .L7
  85 0006 9A42     		cmp	r2, r3
  86 0008 00D0     		beq	.L6
  87              	.LVL5:
  88              	.L3:
  70:Core/Src/main.c **** /* USER CODE END 0 */
  89              		.loc 1 70 1 view .LVU11
  90 000a 08BD     		pop	{r3, pc}
  91              	.LVL6:
  92              	.L6:
  67:Core/Src/main.c ****     // HAL_UART_Transmit(&huart1, u8_TxBuff, sizeof(u8_TxBuff),100);
  93              		.loc 1 67 5 is_stmt 1 view .LVU12
  94 000c FFF7FEFF 		bl	debug_callback
  95              	.LVL7:
  70:Core/Src/main.c **** /* USER CODE END 0 */
  96              		.loc 1 70 1 is_stmt 0 view .LVU13
  97 0010 FBE7     		b	.L3
  98              	.L8:
  99 0012 00BF     		.align	2
 100              	.L7:
 101 0014 00380140 		.word	1073821696
 102              		.cfi_endproc
 103              	.LFE65:
 105              		.section	.text.Error_Handler,"ax",%progbits
 106              		.align	1
ARM GAS  C:\Users\ADMINI~1\AppData\Local\Temp\cc1W5cCT.s 			page 7


 107              		.global	Error_Handler
 108              		.syntax unified
 109              		.thumb
 110              		.thumb_func
 112              	Error_Handler:
 113              	.LFB69:
 233:Core/Src/main.c **** 
 234:Core/Src/main.c **** /* USER CODE BEGIN 4 */
 235:Core/Src/main.c **** 
 236:Core/Src/main.c **** /* USER CODE END 4 */
 237:Core/Src/main.c **** 
 238:Core/Src/main.c **** /**
 239:Core/Src/main.c ****   * @brief  This function is executed in case of error occurrence.
 240:Core/Src/main.c ****   * @retval None
 241:Core/Src/main.c ****   */
 242:Core/Src/main.c **** void Error_Handler(void)
 243:Core/Src/main.c **** {
 114              		.loc 1 243 1 is_stmt 1 view -0
 115              		.cfi_startproc
 116              		@ Volatile: function does not return.
 117              		@ args = 0, pretend = 0, frame = 0
 118              		@ frame_needed = 0, uses_anonymous_args = 0
 119              		@ link register save eliminated.
 244:Core/Src/main.c ****   /* USER CODE BEGIN Error_Handler_Debug */
 245:Core/Src/main.c ****   /* User can add his own implementation to report the HAL error return state */
 246:Core/Src/main.c ****   __disable_irq();
 120              		.loc 1 246 3 view .LVU15
 121              	.LBB4:
 122              	.LBI4:
 123              		.file 2 "Drivers/CMSIS/Include/cmsis_gcc.h"
   1:Drivers/CMSIS/Include/cmsis_gcc.h **** /**************************************************************************//**
   2:Drivers/CMSIS/Include/cmsis_gcc.h ****  * @file     cmsis_gcc.h
   3:Drivers/CMSIS/Include/cmsis_gcc.h ****  * @brief    CMSIS compiler GCC header file
   4:Drivers/CMSIS/Include/cmsis_gcc.h ****  * @version  V5.0.4
   5:Drivers/CMSIS/Include/cmsis_gcc.h ****  * @date     09. April 2018
   6:Drivers/CMSIS/Include/cmsis_gcc.h ****  ******************************************************************************/
   7:Drivers/CMSIS/Include/cmsis_gcc.h **** /*
   8:Drivers/CMSIS/Include/cmsis_gcc.h ****  * Copyright (c) 2009-2018 Arm Limited. All rights reserved.
   9:Drivers/CMSIS/Include/cmsis_gcc.h ****  *
  10:Drivers/CMSIS/Include/cmsis_gcc.h ****  * SPDX-License-Identifier: Apache-2.0
  11:Drivers/CMSIS/Include/cmsis_gcc.h ****  *
  12:Drivers/CMSIS/Include/cmsis_gcc.h ****  * Licensed under the Apache License, Version 2.0 (the License); you may
  13:Drivers/CMSIS/Include/cmsis_gcc.h ****  * not use this file except in compliance with the License.
  14:Drivers/CMSIS/Include/cmsis_gcc.h ****  * You may obtain a copy of the License at
  15:Drivers/CMSIS/Include/cmsis_gcc.h ****  *
  16:Drivers/CMSIS/Include/cmsis_gcc.h ****  * www.apache.org/licenses/LICENSE-2.0
  17:Drivers/CMSIS/Include/cmsis_gcc.h ****  *
  18:Drivers/CMSIS/Include/cmsis_gcc.h ****  * Unless required by applicable law or agreed to in writing, software
  19:Drivers/CMSIS/Include/cmsis_gcc.h ****  * distributed under the License is distributed on an AS IS BASIS, WITHOUT
  20:Drivers/CMSIS/Include/cmsis_gcc.h ****  * WARRANTIES OR CONDITIONS OF ANY KIND, either express or implied.
  21:Drivers/CMSIS/Include/cmsis_gcc.h ****  * See the License for the specific language governing permissions and
  22:Drivers/CMSIS/Include/cmsis_gcc.h ****  * limitations under the License.
  23:Drivers/CMSIS/Include/cmsis_gcc.h ****  */
  24:Drivers/CMSIS/Include/cmsis_gcc.h **** 
  25:Drivers/CMSIS/Include/cmsis_gcc.h **** #ifndef __CMSIS_GCC_H
  26:Drivers/CMSIS/Include/cmsis_gcc.h **** #define __CMSIS_GCC_H
  27:Drivers/CMSIS/Include/cmsis_gcc.h **** 
ARM GAS  C:\Users\ADMINI~1\AppData\Local\Temp\cc1W5cCT.s 			page 8


  28:Drivers/CMSIS/Include/cmsis_gcc.h **** /* ignore some GCC warnings */
  29:Drivers/CMSIS/Include/cmsis_gcc.h **** #pragma GCC diagnostic push
  30:Drivers/CMSIS/Include/cmsis_gcc.h **** #pragma GCC diagnostic ignored "-Wsign-conversion"
  31:Drivers/CMSIS/Include/cmsis_gcc.h **** #pragma GCC diagnostic ignored "-Wconversion"
  32:Drivers/CMSIS/Include/cmsis_gcc.h **** #pragma GCC diagnostic ignored "-Wunused-parameter"
  33:Drivers/CMSIS/Include/cmsis_gcc.h **** 
  34:Drivers/CMSIS/Include/cmsis_gcc.h **** /* Fallback for __has_builtin */
  35:Drivers/CMSIS/Include/cmsis_gcc.h **** #ifndef __has_builtin
  36:Drivers/CMSIS/Include/cmsis_gcc.h ****   #define __has_builtin(x) (0)
  37:Drivers/CMSIS/Include/cmsis_gcc.h **** #endif
  38:Drivers/CMSIS/Include/cmsis_gcc.h **** 
  39:Drivers/CMSIS/Include/cmsis_gcc.h **** /* CMSIS compiler specific defines */
  40:Drivers/CMSIS/Include/cmsis_gcc.h **** #ifndef   __ASM
  41:Drivers/CMSIS/Include/cmsis_gcc.h ****   #define __ASM                                  __asm
  42:Drivers/CMSIS/Include/cmsis_gcc.h **** #endif
  43:Drivers/CMSIS/Include/cmsis_gcc.h **** #ifndef   __INLINE
  44:Drivers/CMSIS/Include/cmsis_gcc.h ****   #define __INLINE                               inline
  45:Drivers/CMSIS/Include/cmsis_gcc.h **** #endif
  46:Drivers/CMSIS/Include/cmsis_gcc.h **** #ifndef   __STATIC_INLINE
  47:Drivers/CMSIS/Include/cmsis_gcc.h ****   #define __STATIC_INLINE                        static inline
  48:Drivers/CMSIS/Include/cmsis_gcc.h **** #endif
  49:Drivers/CMSIS/Include/cmsis_gcc.h **** #ifndef   __STATIC_FORCEINLINE                 
  50:Drivers/CMSIS/Include/cmsis_gcc.h ****   #define __STATIC_FORCEINLINE                   __attribute__((always_inline)) static inline
  51:Drivers/CMSIS/Include/cmsis_gcc.h **** #endif                                           
  52:Drivers/CMSIS/Include/cmsis_gcc.h **** #ifndef   __NO_RETURN
  53:Drivers/CMSIS/Include/cmsis_gcc.h ****   #define __NO_RETURN                            __attribute__((__noreturn__))
  54:Drivers/CMSIS/Include/cmsis_gcc.h **** #endif
  55:Drivers/CMSIS/Include/cmsis_gcc.h **** #ifndef   __USED
  56:Drivers/CMSIS/Include/cmsis_gcc.h ****   #define __USED                                 __attribute__((used))
  57:Drivers/CMSIS/Include/cmsis_gcc.h **** #endif
  58:Drivers/CMSIS/Include/cmsis_gcc.h **** #ifndef   __WEAK
  59:Drivers/CMSIS/Include/cmsis_gcc.h ****   #define __WEAK                                 __attribute__((weak))
  60:Drivers/CMSIS/Include/cmsis_gcc.h **** #endif
  61:Drivers/CMSIS/Include/cmsis_gcc.h **** #ifndef   __PACKED
  62:Drivers/CMSIS/Include/cmsis_gcc.h ****   #define __PACKED                               __attribute__((packed, aligned(1)))
  63:Drivers/CMSIS/Include/cmsis_gcc.h **** #endif
  64:Drivers/CMSIS/Include/cmsis_gcc.h **** #ifndef   __PACKED_STRUCT
  65:Drivers/CMSIS/Include/cmsis_gcc.h ****   #define __PACKED_STRUCT                        struct __attribute__((packed, aligned(1)))
  66:Drivers/CMSIS/Include/cmsis_gcc.h **** #endif
  67:Drivers/CMSIS/Include/cmsis_gcc.h **** #ifndef   __PACKED_UNION
  68:Drivers/CMSIS/Include/cmsis_gcc.h ****   #define __PACKED_UNION                         union __attribute__((packed, aligned(1)))
  69:Drivers/CMSIS/Include/cmsis_gcc.h **** #endif
  70:Drivers/CMSIS/Include/cmsis_gcc.h **** #ifndef   __UNALIGNED_UINT32        /* deprecated */
  71:Drivers/CMSIS/Include/cmsis_gcc.h ****   #pragma GCC diagnostic push
  72:Drivers/CMSIS/Include/cmsis_gcc.h ****   #pragma GCC diagnostic ignored "-Wpacked"
  73:Drivers/CMSIS/Include/cmsis_gcc.h ****   #pragma GCC diagnostic ignored "-Wattributes"
  74:Drivers/CMSIS/Include/cmsis_gcc.h ****   struct __attribute__((packed)) T_UINT32 { uint32_t v; };
  75:Drivers/CMSIS/Include/cmsis_gcc.h ****   #pragma GCC diagnostic pop
  76:Drivers/CMSIS/Include/cmsis_gcc.h ****   #define __UNALIGNED_UINT32(x)                  (((struct T_UINT32 *)(x))->v)
  77:Drivers/CMSIS/Include/cmsis_gcc.h **** #endif
  78:Drivers/CMSIS/Include/cmsis_gcc.h **** #ifndef   __UNALIGNED_UINT16_WRITE
  79:Drivers/CMSIS/Include/cmsis_gcc.h ****   #pragma GCC diagnostic push
  80:Drivers/CMSIS/Include/cmsis_gcc.h ****   #pragma GCC diagnostic ignored "-Wpacked"
  81:Drivers/CMSIS/Include/cmsis_gcc.h ****   #pragma GCC diagnostic ignored "-Wattributes"
  82:Drivers/CMSIS/Include/cmsis_gcc.h ****   __PACKED_STRUCT T_UINT16_WRITE { uint16_t v; };
  83:Drivers/CMSIS/Include/cmsis_gcc.h ****   #pragma GCC diagnostic pop
  84:Drivers/CMSIS/Include/cmsis_gcc.h ****   #define __UNALIGNED_UINT16_WRITE(addr, val)    (void)((((struct T_UINT16_WRITE *)(void *)(addr))-
ARM GAS  C:\Users\ADMINI~1\AppData\Local\Temp\cc1W5cCT.s 			page 9


  85:Drivers/CMSIS/Include/cmsis_gcc.h **** #endif
  86:Drivers/CMSIS/Include/cmsis_gcc.h **** #ifndef   __UNALIGNED_UINT16_READ
  87:Drivers/CMSIS/Include/cmsis_gcc.h ****   #pragma GCC diagnostic push
  88:Drivers/CMSIS/Include/cmsis_gcc.h ****   #pragma GCC diagnostic ignored "-Wpacked"
  89:Drivers/CMSIS/Include/cmsis_gcc.h ****   #pragma GCC diagnostic ignored "-Wattributes"
  90:Drivers/CMSIS/Include/cmsis_gcc.h ****   __PACKED_STRUCT T_UINT16_READ { uint16_t v; };
  91:Drivers/CMSIS/Include/cmsis_gcc.h ****   #pragma GCC diagnostic pop
  92:Drivers/CMSIS/Include/cmsis_gcc.h ****   #define __UNALIGNED_UINT16_READ(addr)          (((const struct T_UINT16_READ *)(const void *)(add
  93:Drivers/CMSIS/Include/cmsis_gcc.h **** #endif
  94:Drivers/CMSIS/Include/cmsis_gcc.h **** #ifndef   __UNALIGNED_UINT32_WRITE
  95:Drivers/CMSIS/Include/cmsis_gcc.h ****   #pragma GCC diagnostic push
  96:Drivers/CMSIS/Include/cmsis_gcc.h ****   #pragma GCC diagnostic ignored "-Wpacked"
  97:Drivers/CMSIS/Include/cmsis_gcc.h ****   #pragma GCC diagnostic ignored "-Wattributes"
  98:Drivers/CMSIS/Include/cmsis_gcc.h ****   __PACKED_STRUCT T_UINT32_WRITE { uint32_t v; };
  99:Drivers/CMSIS/Include/cmsis_gcc.h ****   #pragma GCC diagnostic pop
 100:Drivers/CMSIS/Include/cmsis_gcc.h ****   #define __UNALIGNED_UINT32_WRITE(addr, val)    (void)((((struct T_UINT32_WRITE *)(void *)(addr))-
 101:Drivers/CMSIS/Include/cmsis_gcc.h **** #endif
 102:Drivers/CMSIS/Include/cmsis_gcc.h **** #ifndef   __UNALIGNED_UINT32_READ
 103:Drivers/CMSIS/Include/cmsis_gcc.h ****   #pragma GCC diagnostic push
 104:Drivers/CMSIS/Include/cmsis_gcc.h ****   #pragma GCC diagnostic ignored "-Wpacked"
 105:Drivers/CMSIS/Include/cmsis_gcc.h ****   #pragma GCC diagnostic ignored "-Wattributes"
 106:Drivers/CMSIS/Include/cmsis_gcc.h ****   __PACKED_STRUCT T_UINT32_READ { uint32_t v; };
 107:Drivers/CMSIS/Include/cmsis_gcc.h ****   #pragma GCC diagnostic pop
 108:Drivers/CMSIS/Include/cmsis_gcc.h ****   #define __UNALIGNED_UINT32_READ(addr)          (((const struct T_UINT32_READ *)(const void *)(add
 109:Drivers/CMSIS/Include/cmsis_gcc.h **** #endif
 110:Drivers/CMSIS/Include/cmsis_gcc.h **** #ifndef   __ALIGNED
 111:Drivers/CMSIS/Include/cmsis_gcc.h ****   #define __ALIGNED(x)                           __attribute__((aligned(x)))
 112:Drivers/CMSIS/Include/cmsis_gcc.h **** #endif
 113:Drivers/CMSIS/Include/cmsis_gcc.h **** #ifndef   __RESTRICT
 114:Drivers/CMSIS/Include/cmsis_gcc.h ****   #define __RESTRICT                             __restrict
 115:Drivers/CMSIS/Include/cmsis_gcc.h **** #endif
 116:Drivers/CMSIS/Include/cmsis_gcc.h **** 
 117:Drivers/CMSIS/Include/cmsis_gcc.h **** 
 118:Drivers/CMSIS/Include/cmsis_gcc.h **** /* ###########################  Core Function Access  ########################### */
 119:Drivers/CMSIS/Include/cmsis_gcc.h **** /** \ingroup  CMSIS_Core_FunctionInterface
 120:Drivers/CMSIS/Include/cmsis_gcc.h ****     \defgroup CMSIS_Core_RegAccFunctions CMSIS Core Register Access Functions
 121:Drivers/CMSIS/Include/cmsis_gcc.h ****   @{
 122:Drivers/CMSIS/Include/cmsis_gcc.h ****  */
 123:Drivers/CMSIS/Include/cmsis_gcc.h **** 
 124:Drivers/CMSIS/Include/cmsis_gcc.h **** /**
 125:Drivers/CMSIS/Include/cmsis_gcc.h ****   \brief   Enable IRQ Interrupts
 126:Drivers/CMSIS/Include/cmsis_gcc.h ****   \details Enables IRQ interrupts by clearing the I-bit in the CPSR.
 127:Drivers/CMSIS/Include/cmsis_gcc.h ****            Can only be executed in Privileged modes.
 128:Drivers/CMSIS/Include/cmsis_gcc.h ****  */
 129:Drivers/CMSIS/Include/cmsis_gcc.h **** __STATIC_FORCEINLINE void __enable_irq(void)
 130:Drivers/CMSIS/Include/cmsis_gcc.h **** {
 131:Drivers/CMSIS/Include/cmsis_gcc.h ****   __ASM volatile ("cpsie i" : : : "memory");
 132:Drivers/CMSIS/Include/cmsis_gcc.h **** }
 133:Drivers/CMSIS/Include/cmsis_gcc.h **** 
 134:Drivers/CMSIS/Include/cmsis_gcc.h **** 
 135:Drivers/CMSIS/Include/cmsis_gcc.h **** /**
 136:Drivers/CMSIS/Include/cmsis_gcc.h ****   \brief   Disable IRQ Interrupts
 137:Drivers/CMSIS/Include/cmsis_gcc.h ****   \details Disables IRQ interrupts by setting the I-bit in the CPSR.
 138:Drivers/CMSIS/Include/cmsis_gcc.h ****            Can only be executed in Privileged modes.
 139:Drivers/CMSIS/Include/cmsis_gcc.h ****  */
 140:Drivers/CMSIS/Include/cmsis_gcc.h **** __STATIC_FORCEINLINE void __disable_irq(void)
 124              		.loc 2 140 27 view .LVU16
ARM GAS  C:\Users\ADMINI~1\AppData\Local\Temp\cc1W5cCT.s 			page 10


 125              	.LBB5:
 141:Drivers/CMSIS/Include/cmsis_gcc.h **** {
 142:Drivers/CMSIS/Include/cmsis_gcc.h ****   __ASM volatile ("cpsid i" : : : "memory");
 126              		.loc 2 142 3 view .LVU17
 127              		.syntax unified
 128              	@ 142 "Drivers/CMSIS/Include/cmsis_gcc.h" 1
 129 0000 72B6     		cpsid i
 130              	@ 0 "" 2
 131              		.thumb
 132              		.syntax unified
 133              	.L10:
 134              	.LBE5:
 135              	.LBE4:
 247:Core/Src/main.c ****   while (1)
 136              		.loc 1 247 3 discriminator 1 view .LVU18
 248:Core/Src/main.c ****   {
 249:Core/Src/main.c ****   }
 137              		.loc 1 249 3 discriminator 1 view .LVU19
 247:Core/Src/main.c ****   while (1)
 138              		.loc 1 247 9 discriminator 1 view .LVU20
 139 0002 FEE7     		b	.L10
 140              		.cfi_endproc
 141              	.LFE69:
 143              		.section	.text.SystemClock_Config,"ax",%progbits
 144              		.align	1
 145              		.global	SystemClock_Config
 146              		.syntax unified
 147              		.thumb
 148              		.thumb_func
 150              	SystemClock_Config:
 151              	.LFB67:
 186:Core/Src/main.c ****   RCC_OscInitTypeDef RCC_OscInitStruct = {0};
 152              		.loc 1 186 1 view -0
 153              		.cfi_startproc
 154              		@ args = 0, pretend = 0, frame = 64
 155              		@ frame_needed = 0, uses_anonymous_args = 0
 156 0000 00B5     		push	{lr}
 157              	.LCFI2:
 158              		.cfi_def_cfa_offset 4
 159              		.cfi_offset 14, -4
 160 0002 91B0     		sub	sp, sp, #68
 161              	.LCFI3:
 162              		.cfi_def_cfa_offset 72
 187:Core/Src/main.c ****   RCC_ClkInitTypeDef RCC_ClkInitStruct = {0};
 163              		.loc 1 187 3 view .LVU22
 187:Core/Src/main.c ****   RCC_ClkInitTypeDef RCC_ClkInitStruct = {0};
 164              		.loc 1 187 22 is_stmt 0 view .LVU23
 165 0004 2822     		movs	r2, #40
 166 0006 0021     		movs	r1, #0
 167 0008 06A8     		add	r0, sp, #24
 168 000a FFF7FEFF 		bl	memset
 169              	.LVL8:
 188:Core/Src/main.c **** 
 170              		.loc 1 188 3 is_stmt 1 view .LVU24
 188:Core/Src/main.c **** 
 171              		.loc 1 188 22 is_stmt 0 view .LVU25
 172 000e 0023     		movs	r3, #0
ARM GAS  C:\Users\ADMINI~1\AppData\Local\Temp\cc1W5cCT.s 			page 11


 173 0010 0193     		str	r3, [sp, #4]
 174 0012 0293     		str	r3, [sp, #8]
 175 0014 0393     		str	r3, [sp, #12]
 176 0016 0493     		str	r3, [sp, #16]
 177 0018 0593     		str	r3, [sp, #20]
 193:Core/Src/main.c ****   RCC_OscInitStruct.HSEState = RCC_HSE_ON;
 178              		.loc 1 193 3 is_stmt 1 view .LVU26
 193:Core/Src/main.c ****   RCC_OscInitStruct.HSEState = RCC_HSE_ON;
 179              		.loc 1 193 36 is_stmt 0 view .LVU27
 180 001a 0122     		movs	r2, #1
 181 001c 0692     		str	r2, [sp, #24]
 194:Core/Src/main.c ****   RCC_OscInitStruct.HSEPredivValue = RCC_HSE_PREDIV_DIV1;
 182              		.loc 1 194 3 is_stmt 1 view .LVU28
 194:Core/Src/main.c ****   RCC_OscInitStruct.HSEPredivValue = RCC_HSE_PREDIV_DIV1;
 183              		.loc 1 194 30 is_stmt 0 view .LVU29
 184 001e 4FF48033 		mov	r3, #65536
 185 0022 0793     		str	r3, [sp, #28]
 195:Core/Src/main.c ****   RCC_OscInitStruct.HSIState = RCC_HSI_ON;
 186              		.loc 1 195 3 is_stmt 1 view .LVU30
 196:Core/Src/main.c ****   RCC_OscInitStruct.PLL.PLLState = RCC_PLL_ON;
 187              		.loc 1 196 3 view .LVU31
 196:Core/Src/main.c ****   RCC_OscInitStruct.PLL.PLLState = RCC_PLL_ON;
 188              		.loc 1 196 30 is_stmt 0 view .LVU32
 189 0024 0A92     		str	r2, [sp, #40]
 197:Core/Src/main.c ****   RCC_OscInitStruct.PLL.PLLSource = RCC_PLLSOURCE_HSE;
 190              		.loc 1 197 3 is_stmt 1 view .LVU33
 197:Core/Src/main.c ****   RCC_OscInitStruct.PLL.PLLSource = RCC_PLLSOURCE_HSE;
 191              		.loc 1 197 34 is_stmt 0 view .LVU34
 192 0026 0222     		movs	r2, #2
 193 0028 0D92     		str	r2, [sp, #52]
 198:Core/Src/main.c ****   RCC_OscInitStruct.PLL.PLLMUL = RCC_PLL_MUL9;
 194              		.loc 1 198 3 is_stmt 1 view .LVU35
 198:Core/Src/main.c ****   RCC_OscInitStruct.PLL.PLLMUL = RCC_PLL_MUL9;
 195              		.loc 1 198 35 is_stmt 0 view .LVU36
 196 002a 0E93     		str	r3, [sp, #56]
 199:Core/Src/main.c ****   if (HAL_RCC_OscConfig(&RCC_OscInitStruct) != HAL_OK)
 197              		.loc 1 199 3 is_stmt 1 view .LVU37
 199:Core/Src/main.c ****   if (HAL_RCC_OscConfig(&RCC_OscInitStruct) != HAL_OK)
 198              		.loc 1 199 32 is_stmt 0 view .LVU38
 199 002c 4FF4E013 		mov	r3, #1835008
 200 0030 0F93     		str	r3, [sp, #60]
 200:Core/Src/main.c ****   {
 201              		.loc 1 200 3 is_stmt 1 view .LVU39
 200:Core/Src/main.c ****   {
 202              		.loc 1 200 7 is_stmt 0 view .LVU40
 203 0032 06A8     		add	r0, sp, #24
 204 0034 FFF7FEFF 		bl	HAL_RCC_OscConfig
 205              	.LVL9:
 200:Core/Src/main.c ****   {
 206              		.loc 1 200 6 view .LVU41
 207 0038 80B9     		cbnz	r0, .L15
 207:Core/Src/main.c ****                               |RCC_CLOCKTYPE_PCLK1|RCC_CLOCKTYPE_PCLK2;
 208              		.loc 1 207 3 is_stmt 1 view .LVU42
 207:Core/Src/main.c ****                               |RCC_CLOCKTYPE_PCLK1|RCC_CLOCKTYPE_PCLK2;
 209              		.loc 1 207 31 is_stmt 0 view .LVU43
 210 003a 0F23     		movs	r3, #15
 211 003c 0193     		str	r3, [sp, #4]
ARM GAS  C:\Users\ADMINI~1\AppData\Local\Temp\cc1W5cCT.s 			page 12


 209:Core/Src/main.c ****   RCC_ClkInitStruct.AHBCLKDivider = RCC_SYSCLK_DIV1;
 212              		.loc 1 209 3 is_stmt 1 view .LVU44
 209:Core/Src/main.c ****   RCC_ClkInitStruct.AHBCLKDivider = RCC_SYSCLK_DIV1;
 213              		.loc 1 209 34 is_stmt 0 view .LVU45
 214 003e 0221     		movs	r1, #2
 215 0040 0291     		str	r1, [sp, #8]
 210:Core/Src/main.c ****   RCC_ClkInitStruct.APB1CLKDivider = RCC_HCLK_DIV2;
 216              		.loc 1 210 3 is_stmt 1 view .LVU46
 210:Core/Src/main.c ****   RCC_ClkInitStruct.APB1CLKDivider = RCC_HCLK_DIV2;
 217              		.loc 1 210 35 is_stmt 0 view .LVU47
 218 0042 0023     		movs	r3, #0
 219 0044 0393     		str	r3, [sp, #12]
 211:Core/Src/main.c ****   RCC_ClkInitStruct.APB2CLKDivider = RCC_HCLK_DIV1;
 220              		.loc 1 211 3 is_stmt 1 view .LVU48
 211:Core/Src/main.c ****   RCC_ClkInitStruct.APB2CLKDivider = RCC_HCLK_DIV1;
 221              		.loc 1 211 36 is_stmt 0 view .LVU49
 222 0046 4FF48062 		mov	r2, #1024
 223 004a 0492     		str	r2, [sp, #16]
 212:Core/Src/main.c **** 
 224              		.loc 1 212 3 is_stmt 1 view .LVU50
 212:Core/Src/main.c **** 
 225              		.loc 1 212 36 is_stmt 0 view .LVU51
 226 004c 0593     		str	r3, [sp, #20]
 214:Core/Src/main.c ****   {
 227              		.loc 1 214 3 is_stmt 1 view .LVU52
 214:Core/Src/main.c ****   {
 228              		.loc 1 214 7 is_stmt 0 view .LVU53
 229 004e 01A8     		add	r0, sp, #4
 230 0050 FFF7FEFF 		bl	HAL_RCC_ClockConfig
 231              	.LVL10:
 214:Core/Src/main.c ****   {
 232              		.loc 1 214 6 view .LVU54
 233 0054 20B9     		cbnz	r0, .L16
 218:Core/Src/main.c **** 
 234              		.loc 1 218 1 view .LVU55
 235 0056 11B0     		add	sp, sp, #68
 236              	.LCFI4:
 237              		.cfi_remember_state
 238              		.cfi_def_cfa_offset 4
 239              		@ sp needed
 240 0058 5DF804FB 		ldr	pc, [sp], #4
 241              	.L15:
 242              	.LCFI5:
 243              		.cfi_restore_state
 202:Core/Src/main.c ****   }
 244              		.loc 1 202 5 is_stmt 1 view .LVU56
 245 005c FFF7FEFF 		bl	Error_Handler
 246              	.LVL11:
 247              	.L16:
 216:Core/Src/main.c ****   }
 248              		.loc 1 216 5 view .LVU57
 249 0060 FFF7FEFF 		bl	Error_Handler
 250              	.LVL12:
 251              		.cfi_endproc
 252              	.LFE67:
 254              		.section	.rodata.main.str1.4,"aMS",%progbits,1
 255              		.align	2
ARM GAS  C:\Users\ADMINI~1\AppData\Local\Temp\cc1W5cCT.s 			page 13


 256              	.LC0:
 257 0000 48523A20 		.ascii	"HR: %3d\012\000"
 257      2533640A 
 257      00
 258              		.global	__aeabi_i2f
 259              		.section	.text.main,"ax",%progbits
 260              		.align	1
 261              		.global	main
 262              		.syntax unified
 263              		.thumb
 264              		.thumb_func
 266              	main:
 267              	.LFB66:
  78:Core/Src/main.c ****   /* USER CODE BEGIN 1 */
 268              		.loc 1 78 1 view -0
 269              		.cfi_startproc
 270              		@ args = 0, pretend = 0, frame = 0
 271              		@ frame_needed = 0, uses_anonymous_args = 0
 272 0000 70B5     		push	{r4, r5, r6, lr}
 273              	.LCFI6:
 274              		.cfi_def_cfa_offset 16
 275              		.cfi_offset 4, -16
 276              		.cfi_offset 5, -12
 277              		.cfi_offset 6, -8
 278              		.cfi_offset 14, -4
  86:Core/Src/main.c **** 
 279              		.loc 1 86 3 view .LVU59
 280 0002 FFF7FEFF 		bl	HAL_Init
 281              	.LVL13:
  93:Core/Src/main.c **** 
 282              		.loc 1 93 3 view .LVU60
 283 0006 FFF7FEFF 		bl	SystemClock_Config
 284              	.LVL14:
 100:Core/Src/main.c ****   MX_USART1_UART_Init();
 285              		.loc 1 100 3 view .LVU61
 286 000a FFF7FEFF 		bl	MX_GPIO_Init
 287              	.LVL15:
 101:Core/Src/main.c ****   MX_I2C2_Init();
 288              		.loc 1 101 3 view .LVU62
 289 000e FFF7FEFF 		bl	MX_USART1_UART_Init
 290              	.LVL16:
 102:Core/Src/main.c ****   MX_I2C1_Init();
 291              		.loc 1 102 3 view .LVU63
 292 0012 FFF7FEFF 		bl	MX_I2C2_Init
 293              	.LVL17:
 103:Core/Src/main.c **** 
 294              		.loc 1 103 3 view .LVU64
 295 0016 FFF7FEFF 		bl	MX_I2C1_Init
 296              	.LVL18:
 106:Core/Src/main.c ****   /* USER CODE BEGIN 2 */
 297              		.loc 1 106 3 view .LVU65
 298 001a FFF7FEFF 		bl	MX_NVIC_Init
 299              	.LVL19:
 109:Core/Src/main.c **** 
 300              		.loc 1 109 3 view .LVU66
 301 001e FFF7FEFF 		bl	Debug_Init
 302              	.LVL20:
ARM GAS  C:\Users\ADMINI~1\AppData\Local\Temp\cc1W5cCT.s 			page 14


 111:Core/Src/main.c ****     OLED_Init();
 303              		.loc 1 111 5 view .LVU67
 304 0022 C820     		movs	r0, #200
 305 0024 FFF7FEFF 		bl	HAL_Delay
 306              	.LVL21:
 112:Core/Src/main.c ****   max30102_init();
 307              		.loc 1 112 5 view .LVU68
 308 0028 FFF7FEFF 		bl	OLED_Init
 309              	.LVL22:
 113:Core/Src/main.c ****   /* USER CODE END 2 */
 310              		.loc 1 113 3 view .LVU69
 311 002c FFF7FEFF 		bl	max30102_init
 312              	.LVL23:
 313 0030 2EE0     		b	.L19
 314              	.LVL24:
 315              	.L20:
 316              	.LBB6:
 156:Core/Src/main.c ****             OLED_showNum(1, heartReat % 100 / 10);
 317              		.loc 1 156 17 view .LVU70
 318 0032 0A21     		movs	r1, #10
 319 0034 0020     		movs	r0, #0
 320              	.LVL25:
 156:Core/Src/main.c ****             OLED_showNum(1, heartReat % 100 / 10);
 321              		.loc 1 156 17 is_stmt 0 view .LVU71
 322 0036 FFF7FEFF 		bl	OLED_showNum
 323              	.LVL26:
 324 003a 56E0     		b	.L21
 325              	.L22:
 164:Core/Src/main.c ****             OLED_showNum(4, spo2 % 100 / 10);
 326              		.loc 1 164 17 is_stmt 1 view .LVU72
 327 003c 0A21     		movs	r1, #10
 328 003e 0320     		movs	r0, #3
 329 0040 FFF7FEFF 		bl	OLED_showNum
 330              	.LVL27:
 331              	.L23:
 165:Core/Src/main.c ****             OLED_showNum(5, spo2 % 10);
 332              		.loc 1 165 13 view .LVU73
 333 0044 4649     		ldr	r1, .L27
 334 0046 A1FB0431 		umull	r3, r1, r1, r4
 335 004a 4909     		lsrs	r1, r1, #5
 336 004c 6423     		movs	r3, #100
 337 004e 03FB1141 		mls	r1, r3, r1, r4
 338 0052 C9B2     		uxtb	r1, r1
 339 0054 434D     		ldr	r5, .L27+4
 340 0056 A5FB0131 		umull	r3, r1, r5, r1
 341 005a C908     		lsrs	r1, r1, #3
 342 005c 0420     		movs	r0, #4
 343 005e FFF7FEFF 		bl	OLED_showNum
 344              	.LVL28:
 166:Core/Src/main.c ****             // 画图表
 345              		.loc 1 166 13 view .LVU74
 346 0062 A5FB0431 		umull	r3, r1, r5, r4
 347 0066 C908     		lsrs	r1, r1, #3
 348 0068 01EB8101 		add	r1, r1, r1, lsl #2
 349 006c A4EB4101 		sub	r1, r4, r1, lsl #1
 350 0070 C9B2     		uxtb	r1, r1
 351 0072 0520     		movs	r0, #5
ARM GAS  C:\Users\ADMINI~1\AppData\Local\Temp\cc1W5cCT.s 			page 15


 352 0074 FFF7FEFF 		bl	OLED_showNum
 353              	.LVL29:
 168:Core/Src/main.c ****             OLED_drawChart(diff);
 354              		.loc 1 168 13 view .LVU75
 168:Core/Src/main.c ****             OLED_drawChart(diff);
 355              		.loc 1 168 28 is_stmt 0 view .LVU76
 356 0078 FFF7FEFF 		bl	max30102_getDiff
 357              	.LVL30:
 358 007c 0446     		mov	r4, r0
 359              	.LVL31:
 169:Core/Src/main.c ****             if (diff > 50)
 360              		.loc 1 169 13 is_stmt 1 view .LVU77
 361 007e FFF7FEFF 		bl	__aeabi_i2f
 362              	.LVL32:
 363 0082 FFF7FEFF 		bl	OLED_drawChart
 364              	.LVL33:
 170:Core/Src/main.c ****                 OLED_showHeart(0);
 365              		.loc 1 170 13 view .LVU78
 170:Core/Src/main.c ****                 OLED_showHeart(0);
 366              		.loc 1 170 16 is_stmt 0 view .LVU79
 367 0086 322C     		cmp	r4, #50
 368 0088 65DD     		ble	.L24
 171:Core/Src/main.c ****             else
 369              		.loc 1 171 17 is_stmt 1 view .LVU80
 370 008a 0020     		movs	r0, #0
 371 008c FFF7FEFF 		bl	OLED_showHeart
 372              	.LVL34:
 373              	.L19:
 171:Core/Src/main.c ****             else
 374              		.loc 1 171 17 is_stmt 0 view .LVU81
 375              	.LBE6:
 118:Core/Src/main.c ****   {
 376              		.loc 1 118 3 is_stmt 1 view .LVU82
 145:Core/Src/main.c ****         {
 377              		.loc 1 145 5 view .LVU83
 145:Core/Src/main.c ****         {
 378              		.loc 1 145 9 is_stmt 0 view .LVU84
 379 0090 4FF48051 		mov	r1, #4096
 380 0094 3448     		ldr	r0, .L27+8
 381 0096 FFF7FEFF 		bl	HAL_GPIO_ReadPin
 382              	.LVL35:
 145:Core/Src/main.c ****         {
 383              		.loc 1 145 8 view .LVU85
 384 009a 0028     		cmp	r0, #0
 385 009c F8D1     		bne	.L19
 386              	.LBB7:
 147:Core/Src/main.c ****             max30102_cal();
 387              		.loc 1 147 13 is_stmt 1 view .LVU86
 388 009e 4FF40051 		mov	r1, #8192
 389 00a2 00F18040 		add	r0, r0, #1073741824
 390 00a6 00F58830 		add	r0, r0, #69632
 391 00aa FFF7FEFF 		bl	HAL_GPIO_TogglePin
 392              	.LVL36:
 148:Core/Src/main.c **** 
 393              		.loc 1 148 13 view .LVU87
 394 00ae FFF7FEFF 		bl	max30102_cal
 395              	.LVL37:
ARM GAS  C:\Users\ADMINI~1\AppData\Local\Temp\cc1W5cCT.s 			page 16


 150:Core/Src/main.c ****             uint8_t heartReat = max30102_getHeartRate();
 396              		.loc 1 150 13 view .LVU88
 150:Core/Src/main.c ****             uint8_t heartReat = max30102_getHeartRate();
 397              		.loc 1 150 28 is_stmt 0 view .LVU89
 398 00b2 FFF7FEFF 		bl	max30102_getSpO2
 399              	.LVL38:
 400 00b6 0446     		mov	r4, r0
 401              	.LVL39:
 151:Core/Src/main.c ****             // 显示心率
 402              		.loc 1 151 13 is_stmt 1 view .LVU90
 151:Core/Src/main.c ****             // 显示心率
 403              		.loc 1 151 33 is_stmt 0 view .LVU91
 404 00b8 FFF7FEFF 		bl	max30102_getHeartRate
 405              	.LVL40:
 406 00bc 0646     		mov	r6, r0
 407              	.LVL41:
 153:Core/Src/main.c ****                 OLED_showNum(0, heartReat % 1000 / 100);
 408              		.loc 1 153 13 is_stmt 1 view .LVU92
 153:Core/Src/main.c ****                 OLED_showNum(0, heartReat % 1000 / 100);
 409              		.loc 1 153 27 is_stmt 0 view .LVU93
 410 00be 2B4A     		ldr	r2, .L27+12
 411 00c0 82FB0032 		smull	r3, r2, r2, r0
 412 00c4 C317     		asrs	r3, r0, #31
 413 00c6 C3EBA213 		rsb	r3, r3, r2, asr #6
 414 00ca 4FF47A72 		mov	r2, #1000
 415 00ce 02FB1303 		mls	r3, r2, r3, r0
 153:Core/Src/main.c ****                 OLED_showNum(0, heartReat % 1000 / 100);
 416              		.loc 1 153 16 view .LVU94
 417 00d2 632B     		cmp	r3, #99
 418 00d4 ADDD     		ble	.L20
 154:Core/Src/main.c ****             else
 419              		.loc 1 154 17 is_stmt 1 view .LVU95
 154:Core/Src/main.c ****             else
 420              		.loc 1 154 50 is_stmt 0 view .LVU96
 421 00d6 2249     		ldr	r1, .L27
 422 00d8 81FB0321 		smull	r2, r1, r1, r3
 423 00dc DB17     		asrs	r3, r3, #31
 424 00de C3EB6111 		rsb	r1, r3, r1, asr #5
 154:Core/Src/main.c ****             else
 425              		.loc 1 154 17 view .LVU97
 426 00e2 C9B2     		uxtb	r1, r1
 427 00e4 0020     		movs	r0, #0
 428              	.LVL42:
 154:Core/Src/main.c ****             else
 429              		.loc 1 154 17 view .LVU98
 430 00e6 FFF7FEFF 		bl	OLED_showNum
 431              	.LVL43:
 432              	.L21:
 157:Core/Src/main.c ****             OLED_showNum(2, heartReat % 10);
 433              		.loc 1 157 13 is_stmt 1 view .LVU99
 434 00ea 1D49     		ldr	r1, .L27
 435 00ec A1FB0631 		umull	r3, r1, r1, r6
 436 00f0 4909     		lsrs	r1, r1, #5
 437 00f2 6423     		movs	r3, #100
 438 00f4 03FB1161 		mls	r1, r3, r1, r6
 439 00f8 C9B2     		uxtb	r1, r1
 440 00fa 1A4D     		ldr	r5, .L27+4
ARM GAS  C:\Users\ADMINI~1\AppData\Local\Temp\cc1W5cCT.s 			page 17


 441 00fc A5FB0131 		umull	r3, r1, r5, r1
 442 0100 C908     		lsrs	r1, r1, #3
 443 0102 0120     		movs	r0, #1
 444 0104 FFF7FEFF 		bl	OLED_showNum
 445              	.LVL44:
 158:Core/Src/main.c ****             logPC("HR: %3d\n", heartReat);
 446              		.loc 1 158 13 view .LVU100
 447 0108 A5FB0635 		umull	r3, r5, r5, r6
 448 010c ED08     		lsrs	r5, r5, #3
 449 010e 05EB8505 		add	r5, r5, r5, lsl #2
 450 0112 A6EB4501 		sub	r1, r6, r5, lsl #1
 451 0116 C9B2     		uxtb	r1, r1
 452 0118 0220     		movs	r0, #2
 453 011a FFF7FEFF 		bl	OLED_showNum
 454              	.LVL45:
 159:Core/Src/main.c ****             // 显示血氧
 455              		.loc 1 159 13 view .LVU101
 456 011e 3146     		mov	r1, r6
 457 0120 1348     		ldr	r0, .L27+16
 458 0122 FFF7FEFF 		bl	logPC
 459              	.LVL46:
 161:Core/Src/main.c ****                 OLED_showNum(3, spo2 % 1000 / 100);
 460              		.loc 1 161 13 view .LVU102
 161:Core/Src/main.c ****                 OLED_showNum(3, spo2 % 1000 / 100);
 461              		.loc 1 161 22 is_stmt 0 view .LVU103
 462 0126 114A     		ldr	r2, .L27+12
 463 0128 82FB0432 		smull	r3, r2, r2, r4
 464 012c E317     		asrs	r3, r4, #31
 465 012e C3EBA213 		rsb	r3, r3, r2, asr #6
 466 0132 4FF47A72 		mov	r2, #1000
 467 0136 02FB1343 		mls	r3, r2, r3, r4
 161:Core/Src/main.c ****                 OLED_showNum(3, spo2 % 1000 / 100);
 468              		.loc 1 161 16 view .LVU104
 469 013a 632B     		cmp	r3, #99
 470 013c 7FF77EAF 		ble	.L22
 162:Core/Src/main.c ****             else
 471              		.loc 1 162 17 is_stmt 1 view .LVU105
 162:Core/Src/main.c ****             else
 472              		.loc 1 162 45 is_stmt 0 view .LVU106
 473 0140 0749     		ldr	r1, .L27
 474 0142 81FB0321 		smull	r2, r1, r1, r3
 475 0146 DB17     		asrs	r3, r3, #31
 476 0148 C3EB6111 		rsb	r1, r3, r1, asr #5
 162:Core/Src/main.c ****             else
 477              		.loc 1 162 17 view .LVU107
 478 014c C9B2     		uxtb	r1, r1
 479 014e 0320     		movs	r0, #3
 480 0150 FFF7FEFF 		bl	OLED_showNum
 481              	.LVL47:
 482 0154 76E7     		b	.L23
 483              	.LVL48:
 484              	.L24:
 173:Core/Src/main.c ****             // HAL_Delay(50);
 485              		.loc 1 173 17 is_stmt 1 view .LVU108
 486 0156 0120     		movs	r0, #1
 487 0158 FFF7FEFF 		bl	OLED_showHeart
 488              	.LVL49:
ARM GAS  C:\Users\ADMINI~1\AppData\Local\Temp\cc1W5cCT.s 			page 18


 489 015c 98E7     		b	.L19
 490              	.L28:
 491 015e 00BF     		.align	2
 492              	.L27:
 493 0160 1F85EB51 		.word	1374389535
 494 0164 CDCCCCCC 		.word	-858993459
 495 0168 000C0140 		.word	1073810432
 496 016c D34D6210 		.word	274877907
 497 0170 00000000 		.word	.LC0
 498              	.LBE7:
 499              		.cfi_endproc
 500              	.LFE66:
 502              		.text
 503              	.Letext0:
 504              		.file 3 "c:\\program files (x86)\\gnu arm embedded toolchain\\10 2021.10\\arm-none-eabi\\include\\
 505              		.file 4 "c:\\program files (x86)\\gnu arm embedded toolchain\\10 2021.10\\arm-none-eabi\\include\\
 506              		.file 5 "Drivers/CMSIS/Device/ST/STM32F1xx/Include/stm32f103xb.h"
 507              		.file 6 "Drivers/STM32F1xx_HAL_Driver/Inc/stm32f1xx_hal_def.h"
 508              		.file 7 "Drivers/STM32F1xx_HAL_Driver/Inc/stm32f1xx_hal_rcc.h"
 509              		.file 8 "Drivers/STM32F1xx_HAL_Driver/Inc/stm32f1xx_hal_rcc_ex.h"
 510              		.file 9 "Drivers/STM32F1xx_HAL_Driver/Inc/stm32f1xx_hal_gpio.h"
 511              		.file 10 "Drivers/STM32F1xx_HAL_Driver/Inc/stm32f1xx_hal_dma.h"
 512              		.file 11 "Drivers/STM32F1xx_HAL_Driver/Inc/stm32f1xx_hal_uart.h"
 513              		.file 12 "Drivers/STM32F1xx_HAL_Driver/Inc/stm32f1xx_hal_cortex.h"
 514              		.file 13 "Core/Inc/oled.h"
 515              		.file 14 "Core/Inc/max30102.h"
 516              		.file 15 "Core/Inc/debug.h"
 517              		.file 16 "Drivers/STM32F1xx_HAL_Driver/Inc/stm32f1xx_hal.h"
 518              		.file 17 "Core/Inc/gpio.h"
 519              		.file 18 "Core/Inc/usart.h"
 520              		.file 19 "Core/Inc/i2c.h"
 521              		.file 20 "<built-in>"
ARM GAS  C:\Users\ADMINI~1\AppData\Local\Temp\cc1W5cCT.s 			page 19

